******************************************************************************
                  TI ARM Linker PC v20.2.1                     
******************************************************************************
>> Linked Wed Nov 25 05:13:09 2020

OUTPUT FILE NAME:   <coprocessor_CC1352R1_LAUNCHXL_tirtos_ccs.out>
ENTRY POINT SYMBOL: "ResetISR"  address: 00012015


MEMORY CONFIGURATION

         name            origin    length      used     unused   attr    fill
----------------------  --------  ---------  --------  --------  ----  --------
  FLASH                 00000000   0004e000  00016b6c  00037494  R  X
  FLASH_NV              0004e000   00008000  00008000  00000000  RW X
  FLASH_LAST            00056000   00002000  00002000  00000000  R  X
  SRAM                  20000000   00014000  00004266  0000fd9a  RW X


SEGMENT ALLOCATION MAP

run origin  load origin   length   init length attrs members
----------  ----------- ---------- ----------- ----- -------
00000000    00000000    00016b70   00016b70    r-x
  00000000    00000000    0000003c   0000003c    r-- .resetVecs
  0000003c    0000003c    0000246c   0000246c    r-- .const
  000024a8    000024a8    000141a4   000141a4    r-x .text.1
  00016650    00016650    00000520   00000520    r-- .cinit
0004e000    0004e000    00008000   00000000    rw-
  0004e000    0004e000    00008000   00000000    rw- .TI.bound:flashBuf0
00056000    00056000    00002000   00002000    r-x
  00056000    00056000    00001fa8   00001fa8    r-x .text.2
  00057fa8    00057fa8    00000058   00000058    r-- .ccfg
20000100    20000100    00003c32   00000000    rw-
  20000100    20000100    00000004   00000000    rw- .data:xdcRomConstPtr
  20000104    20000104    00000004   00000000    rw- .data:xdcRomExternFuncPtr
  20000108    20000108    00000004   00000000    rw- .data:xdcRomStatePtr
  2000010c    2000010c    00000010   00000000    rw- .data:RAM_MAC_BASE_ADDR
  20000120    20000120    00002c74   00000000    rw- .data
  20002d98    20002d98    00000f9a   00000000    rw- .bss
20013aa0    20013aa0    00000560   00000000    rw-
  20013aa0    20013aa0    00000560   00000000    rw- .stack


SECTION ALLOCATION MAP

 output                                  attributes/
section   page    origin      length       input sections
--------  ----  ----------  ----------   ----------------
.const     0    0000003c    0000246c     
                  0000003c    00000568     maclib_secure_cc13x2_zstack_subg.a : hmac_rom_init.obj (.const:HMAC_ROM_Flash_JT)
                  000005a4    000004c0     ti_radio_config.obj (.const:$O21$$)
                  00000a64    000003b8     app_cop_pem4f.oem4f (.const:ROM_constStruct)
                  00000e1c    00000258     maclib_secure_cc13x2_zstack_subg.a : fh_rom_init.obj (.const:FH_ROM_Flash_JT)
                  00001074    000001f0     rf_multiMode_cc13x2.aem4f : rf_patch_cpe_prop.c.cc13x2.ccs.o (.const:patchImageProp)
                  00001264    00000168                               : rf_patch_cpe_ieee_802_15_4.c.cc13x2.ccs.o (.const:patchImageIeee802154)
                  000013cc    00000144     mac_user_config.obj (.const:$O18$$)
                  00001510    0000012c     mac_cfg.obj (.const:FH_PibTbl)
                  0000163c    00000100     crc.obj (.const:.string:crc_table$20)
                  0000173c    000000fa     maclib_secure_cc13x2_zstack_subg.a : fh_global.obj (.const:FH_stateMatrix)
                  00001836    000000f8     mac_cfg.obj (.const:macPibTbl)
                  0000192e    00000001     ti_drivers_config.obj (.const:aesccmCC26XXHWAttrs)
                  0000192f    00000001     app_cop_pem4f.oem4f (.const:xdc_runtime_Text_charTab__A)
                  00001930    000000cc     maclib_secure_cc13x2_zstack_subg.a : lmac_rom_init.obj (.const:LMAC_ROM_Flash_JT)
                  000019fc    0000008c     mac_cfg.obj (.const:FHPIB_defaults)
                  00001a88    00000088     mac_cfg.obj (.const:macPibDefaults)
                  00001b10    00000080     drivers_cc13x2.a : Random.oem4f (.const:$P$T0$1)
                  00001b90    00000072     maclib_secure_cc13x2_zstack_subg.a : hmac_global.obj (.const:macAssociatingSt)
                  00001c02    00000072                                        : hmac_global.obj (.const:macIdleSt)
                  00001c74    00000072                                        : hmac_global.obj (.const:macPollingSt)
                  00001ce6    00000072                                        : hmac_global.obj (.const:macScanningSt)
                  00001d58    00000072                                        : hmac_global.obj (.const:macStartingSt)
                  00001dca    00000002     --HOLE-- [fill = 0]
                  00001dcc    0000006c                                        : icall_osal_rom_init.obj (.const:ICALL_OSAL_ROM_Flash_JT)
                  00001e38    0000006c     mac_user_config.obj (.const:macRfDriverTable)
                  00001ea4    00000058     mac_cfg.obj (.const:macSecurityPibTbl)
                  00001efc    00000054     drivers_cc13x2.a : PowerCC26X2.oem4f (.const:resourceDB)
                  00001f50    00000050     mac_cfg.obj (.const:macMRFSKStdPhyTable)
                  00001fa0    00000048     app_cop_pem4f.oem4f (.const:.string)
                  00001fe8    00000048     app_cop_pem4f.oem4f (.const:ROM_externFuncPtrs)
                  00002030    00000040     mac_user_config.obj (.const:macCryptoDriverTable)
                  00002070    00000040     maclib_secure_cc13x2_zstack_subg.a : hmac_global.obj (.const:macTimerRolloverValue)
                  000020b0    00000038     ti_drivers_config.obj (.const:$O1$$)
                  000020e8    00000038     maclib_secure_cc13x2_zstack_subg.a : hmac_global.obj (.const:macCmdIncludeFHIe)
                  00002120    00000028     drivers_cc13x2.a : NVSCC26XX.oem4f (.const:NVSCC26XX_fxnTable)
                  00002148    00000028                      : UARTCC26XX.oem4f (.const:UARTCC26XX_fxnTable)
                  00002170    00000028     app_cop_pem4f.oem4f (.const:ti_sysbios_heaps_HeapCallback_Module__FXNS__C)
                  00002198    00000028     ti_drivers_config.obj (.const:uartCC26XXHWAttrs)
                  000021c0    00000028     app_cop_pem4f.oem4f (.const:xdc_runtime_Startup_sfxnTab__A)
                  000021e8    00000024     drivers_cc13x2.a : UART.oem4f (.const:UART_defaultParams)
                  0000220c    00000024     app_cop_pem4f.oem4f (.const:ti_sysbios_gates_GateMutexPri_Module__FXNS__C)
                  00002230    00000020     rf_multiMode_cc13x2.aem4f : RFCC26X2_multiMode.c.cc13x2.ccs.o (.const:RF_defaultParams)
                  00002250    00000020     app_cop_pem4f.oem4f (.const:ti_sysbios_gates_GateMutexPri_Object__DESC__C)
                  00002270    00000020     app_cop_pem4f.oem4f (.const:ti_sysbios_heaps_HeapCallback_Object__DESC__C)
                  00002290    0000001c     app_cop_pem4f.oem4f (.const:ti_sysbios_heaps_HeapCallback_Object__PARAMS__C)
                  000022ac    00000018     maclib_secure_cc13x2_zstack_subg.a : hmac_global.obj (.const:macSendMsgBufSize)
                  000022c4    00000018     app_cop_pem4f.oem4f (.const:ti_sysbios_gates_GateMutexPri_Object__PARAMS__C)
                  000022dc    00000014     ti_drivers_config.obj (.const:PowerCC26X2_config)
                  000022f0    00000014     drivers_cc13x2.a : UARTCC26XX.oem4f (.const:parityType)
                  00002304    00000014     app_cop_pem4f.oem4f (.const:xdc_runtime_Startup_sfxnRts__A)
                  00002318    00000013     macTask.obj (.const:.string:msacbackSizeTable)
                  0000232b    00000001     --HOLE-- [fill = 0]
                  0000232c    00000010     drivers_cc13x2.a : AESCCM.oem4f (.const:AESCCM_defaultParams)
                  0000233c    00000010                      : TRNG.oem4f (.const:TRNG_defaultParams)
                  0000234c    00000010                      : UARTCC26XX.oem4f (.const:dataLength)
                  0000235c    00000010     maclib_secure_cc13x2_zstack_subg.a : hmac_global.obj (.const:macIEEEPhyTable)
                  0000236c    0000000e                                        : hmac_global.obj (.const:.string:macCmdBufSize)
                  0000237a    0000000e                                        : hmac_global.obj (.const:.string:macTxFrameFailed)
                  00002388    0000000e                                        : hmac_global.obj (.const:.string:macTxFrameSuccess)
                  00002396    00000002     --HOLE-- [fill = 0]
                  00002398    0000000c     mt_sys.obj (.const:$O6$$)
                  000023a4    0000000c     drivers_cc13x2.a : Random.oem4f (.const:$P$T1$2)
                  000023b0    0000000c     maclib_secure_cc13x2_zstack_subg.a : hmac_global.obj (.const:.string:macCbackEventTbl)
                  000023bc    0000000c                                        : hmac_global.obj (.const:.string:macSendMsgDataSize)
                  000023c8    0000000c     ti_drivers_config.obj (.const:NVS_config)
                  000023d4    0000000c     ti_drivers_config.obj (.const:RFCC26XX_hwAttrs)
                  000023e0    0000000c     ti_drivers_config.obj (.const:UART_config)
                  000023ec    0000000c     app_cop_pem4f.oem4f (.const:xdc_runtime_Startup_firstFxns__A)
                  000023f8    0000000b     ti_drivers_config.obj (.const)
                  00002403    00000009     maclib_secure_cc13x2_zstack_subg.a : hmac_global.obj (.const:.string:macCmdLen)
                  0000240c    00000008                                        : mac_rx.obj (.const:$O27$$)
                  00002414    00000008     driverlib.lib : aux_sysif.obj (.const:$O36$$)
                  0000241c    00000008     main.obj (.const:.string:dummyExtAddr$1)
                  00002424    00000008     maclib_secure_cc13x2_zstack_subg.a : fh_global.obj (.const:.string:fhSupFrameTypes)
                  0000242c    00000008                                        : hmac_global.obj (.const:.string:macAuthTagLen)
                  00002434    00000008     ti_drivers_config.obj (.const:AESCCM_config)
                  0000243c    00000008     ti_drivers_config.obj (.const:PINCC26XX_hwAttrs)
                  00002444    00000008     ti_drivers_config.obj (.const:nvsCC26XXHWAttrs)
                  0000244c    00000008     drivers_cc13x2.a : UARTCC26XX.oem4f (.const:stopBits)
                  00002454    00000008     app_cop_pem4f.oem4f (.const:ti_sysbios_family_arm_m3_Hwi_excHookFuncs__A)
                  0000245c    00000006     drivers_cc13x2.a : UARTCC26XX.oem4f (.const:.string:rxFifoBytes)
                  00002462    00000006                      : UARTCC26XX.oem4f (.const:.string:rxFifoThreshold)
                  00002468    00000006                      : UARTCC26XX.oem4f (.const:.string:txFifoBytes)
                  0000246e    00000006                      : UARTCC26XX.oem4f (.const:.string:txFifoThreshold)
                  00002474    00000004     maclib_secure_cc13x2_zstack_subg.a : hmac_global.obj (.const:.string:macKeySourceLen)
                  00002478    00000004     drivers_cc13x2.a : NVS.oem4f (.const:NVS_defaultParams)
                  0000247c    00000004     app_cop_pem4f.oem4f (.const:ti_sysbios_gates_GateMutexPri_Instance_State_pendQ__O)
                  00002480    00000004     app_cop_pem4f.oem4f (.const:ti_sysbios_heaps_HeapCallback_Object__count__C)
                  00002484    00000004     app_cop_pem4f.oem4f (.const:ti_sysbios_heaps_HeapCallback_allocInstFxn__C)
                  00002488    00000004     app_cop_pem4f.oem4f (.const:ti_sysbios_heaps_HeapCallback_createInstFxn__C)
                  0000248c    00000004     app_cop_pem4f.oem4f (.const:ti_sysbios_heaps_HeapCallback_deleteInstFxn__C)
                  00002490    00000004     app_cop_pem4f.oem4f (.const:ti_sysbios_heaps_HeapCallback_freeInstFxn__C)
                  00002494    00000004     app_cop_pem4f.oem4f (.const:ti_sysbios_heaps_HeapCallback_getStatsInstFxn__C)
                  00002498    00000004     app_cop_pem4f.oem4f (.const:ti_sysbios_heaps_HeapCallback_initInstFxn__C)
                  0000249c    00000004     app_cop_pem4f.oem4f (.const:ti_sysbios_heaps_HeapCallback_isBlockingInstFxn__C)
                  000024a0    00000004     app_cop_pem4f.oem4f (.const:ti_sysbios_knl_Clock_tickPeriod__C)
                  000024a4    00000004     app_cop_pem4f.oem4f (.const:ti_sysbios_knl_Idle_funcList__A)

.cinit     0    00016650    00000520     
                  00016650    000004b6     (.cinit..data.load) [load image, compression = lzss]
                  00016b06    00000002     --HOLE-- [fill = 0]
                  00016b08    0000000c     (__TI_handler_table)
                  00016b14    00000004     --HOLE-- [fill = 0]
                  00016b18    00000008     (.cinit..bss.load) [load image, compression = zero_init]
                  00016b20    00000008     (.cinit..data:RAM_MAC_BASE_ADDR.load) [load image, compression = zero_init]
                  00016b28    00000008     (.cinit..data:xdcRomConstPtr.load) [load image, compression = lzss]
                  00016b30    00000008     (.cinit..data:xdcRomExternFuncPtr.load) [load image, compression = lzss]
                  00016b38    00000008     (.cinit..data:xdcRomStatePtr.load) [load image, compression = lzss]
                  00016b40    00000030     (__TI_cinit_table)

.init_array 
*          0    00000000    00000000     UNINITIALIZED

.TI.bound:flashBuf0 
*          0    0004e000    00008000     UNINITIALIZED
                  0004e000    00008000     ti_drivers_config.obj (.TI.bound:flashBuf0)

.ccfg      0    00057fa8    00000058     
                  00057fa8    00000058     ti_devices_config.obj (.ccfg:retain)

.data:xdcRomConstPtr 
*          0    20000100    00000004     UNINITIALIZED
                  20000100    00000004     app_cop_pem4f.oem4f (.data:xdcRomConstPtr)

.data:xdcRomExternFuncPtr 
*          0    20000104    00000004     UNINITIALIZED
                  20000104    00000004     app_cop_pem4f.oem4f (.data:xdcRomExternFuncPtr)

.data:xdcRomStatePtr 
*          0    20000108    00000004     UNINITIALIZED
                  20000108    00000004     app_cop_pem4f.oem4f (.data:xdcRomStatePtr)

.data      0    20000120    00002c74     UNINITIALIZED
                  20000120    000008c4     macTask.obj (.data:$O16$$)
                  200009e4    00000004     maclib_secure_cc13x2_zstack_subg.a : mac_autopend.obj (.data:$O24$$)
                  200009e8    000004f8     rf_multiMode_cc13x2.aem4f : RFCC26X2_multiMode.c.cc13x2.ccs.o (.data:$O1$$)
                  20000ee0    000003e4     main.obj (.data:$O1$$)
                  200012c4    00000388     npi_task.obj (.data:$O11$$)
                  2000164c    00000318     ti_radio_config.obj (.data:$O20$$)
                  20001964    00000234     npi_tl.obj (.data:$O12$$)
                  20001b98    000001b0     mac_settings.obj (.data:$O17$$)
                  20001d48    00000198     zstack_subg_cb.obj (.data:$O14$$)
                  20001ee0    0000018c     maclib_osal_tirtos_cc13x2_26x2.a : osal_port.obj (.data:$O32$$)
                  2000206c    00000170     drivers_cc13x2.a : PowerCC26X2.oem4f (.data:PowerCC26X2_module)
                  200021dc    00000114     npi_rxbuf.obj (.data:$O10$$)
                  200022f0    0000010c     app_cop_pem4f.oem4f (.data:ROM_stateStruct)
                  200023fc    00000004     maclib_secure_cc13x2_zstack_subg.a : fh_global.obj (.data:macAddrSize)
                  20002400    000000a8                                        : mac.obj (.data:$O23$$)
                  200024a8    000000a0     mac_cfg.obj (.data:macMRFSKGenPhyTable)
                  20002548    00000078     nvocmp.obj (.data:$O19$$)
                  200025c0    0000006c     maclib_secure_cc13x2_zstack_subg.a : hmac_global.obj (.data:fhObject)
                  2000262c    00000054                                        : fh_global.obj (.data:FHIE_channelPlan)
                  20002680    0000004c     mcp.obj (.data:$O2$$)
                  200026cc    0000004c     app_cop_pem4f.oem4f (.data:ti_sysbios_knl_Task_Object__table__V)
                  20002718    00000048     app_cop_pem4f.oem4f (.data:ti_sysbios_family_arm_cc26xx_Timer_Object__table__V)
                  20002760    00000044     board_led.obj (.data:$O8$$)
                  200027a4    00000040     maclib_secure_cc13x2_zstack_subg.a : mac_radio.obj (.data:$O25$$)
                  200027e4    00000040     ti_radio_config.obj (.data:pOverrides_2gfsk500kbps154g)
                  20002824    0000003c     ti_radio_config.obj (.data:pOverrides_2gfsk100kbps154g868mhz)
                  20002860    0000003c     ti_radio_config.obj (.data:pOverrides_2gfsk100kbps154g915mhz)
                  2000289c    00000038     npi_tl_uart.obj (.data:$O13$$)
                  200028d4    00000038     app_cop_pem4f.oem4f (.data:ti_sysbios_gates_GateMutex_Object__table__V)
                  2000290c    00000034     api_mac.obj (.data:$O15$$)
                  20002940    00000034     maclib_secure_cc13x2_zstack_subg.a : hmac_global.obj (.data:macBeaconPayload)
                  20002974    00000030     mt_util.obj (.data:$O7$$)
                  200029a4    00000030     maclib_secure_cc13x2_zstack_subg.a : hmac_global.obj (.data)
                  200029d4    00000030     app_cop_pem4f.oem4f (.data:ti_sysbios_knl_Swi_Module_State_0_readyQ__A)
                  20002a04    00000030     app_cop_pem4f.oem4f (.data:ti_sysbios_knl_Swi_Object__table__V)
                  20002a34    00000030     app_cop_pem4f.oem4f (.data:ti_sysbios_knl_Task_Module_State_0_readyQ__A)
                  20002a64    0000002c     mt.obj (.data:$O3$$)
                  20002a90    0000002c     ti_radio_config.obj (.data:pOverrides_slr5kbps2gfsk)
                  20002abc    00000028     maclib_secure_cc13x2_zstack_subg.a : mac_symbol_timer.obj (.data:$O28$$)
                  20002ae4    00000028     ti_radio_config.obj (.data:pOverrides_2gfsk200kbps154g)
                  20002b0c    00000028     ti_radio_config.obj (.data:pOverrides_2gfsk50kbps154g)
                  20002b34    00000024     maclib_secure_cc13x2_zstack_subg.a : mac_tx.obj (.data:$O29$$)
                  20002b58    00000024     driverlib.lib : osc.obj (.data:$O34$$)
                  20002b7c    00000024     maclib_secure_cc13x2_zstack_subg.a : hmac_global.obj (.data:macActionSet)
                  20002ba0    00000020     drivers_cc13x2.a : TRNGCC26XX.oem4f (.data:entropyPoolBuffer)
                  20002bc0    00000020     mac_cfg.obj (.data:macBeaconMargin)
                  20002be0    00000020     app_cop_pem4f.oem4f (.data:ti_sysbios_knl_Clock_Object__table__V)
                  20002c00    00000020     app_cop_pem4f.oem4f (.data:xdc_runtime_Error_IgnoreBlock)
                  20002c20    00000018     app_cop_pem4f.oem4f (.data:ti_sysbios_family_arm_m3_Hwi_Object__table__V)
                  20002c38    00000014     maclib_secure_cc13x2_zstack_subg.a : mac_radio_tx.obj (.data:$O31$$)
                  20002c4c    00000014                                        : hmac_global.obj (.data:macStateTbl)
                  20002c60    00000010     maclib_osal_tirtos_cc13x2_26x2.a : osal_port_timers.obj (.data:$O33$$)
                  20002c70    00000010     mac_cfg.obj (.data:macCfg)
                  20002c80    0000000f     maclib_secure_cc13x2_zstack_subg.a : mac.obj (.data)
                  20002c8f    00000001     drivers_cc13x2.a : AESCCMCC26XX.oem4f (.data)
                  20002c90    0000000c     maclib_secure_cc13x2_zstack_subg.a : mac_hl_patch.obj (.data:$O22$$)
                  20002c9c    0000000c     npi_frame_mt.obj (.data:$O9$$)
                  20002ca8    0000000c     maclib_secure_cc13x2_zstack_subg.a : fh_global.obj (.data:FH_FSM)
                  20002cb4    0000000c     ti_radio_config.obj (.data:pOverrides_ieee154)
                  20002cc0    0000000c     app_cop_pem4f.oem4f (.data:ti_sysbios_heaps_HeapCallback_Object__table__V)
                  20002ccc    00000008     rtsv7M4_T_le_v4SPD16_eabi.lib : _lock.c.obj (.data:$O37$$)
                  20002cd4    00000008     mt_sys.obj (.data:$O5$$)
                  20002cdc    00000008     maclib_secure_cc13x2_zstack_subg.a : fh_global.obj (.data:FH_txTiming)
                  20002ce4    00000008     rf_multiMode_cc13x2.aem4f : RFCC26X2_multiMode.c.cc13x2.ccs.o (.data:RFCC26XX_schedulerPolicy)
                  20002cec    00000008     drivers_cc13x2.a : PINCC26XX.oem4f (.data)
                  20002cf4    00000008                      : TRNGCC26XX.oem4f (.data:jobList)
                  20002cfc    00000008     app_cop_pem4f.oem4f (.data:ti_sysbios_family_arm_m3_Hwi_Module__root__V)
                  20002d04    00000008     app_cop_pem4f.oem4f (.data:ti_sysbios_gates_GateHwi_Module__root__V)
                  20002d0c    00000008     app_cop_pem4f.oem4f (.data:ti_sysbios_gates_GateMutexPri_Module__root__V)
                  20002d14    00000008     app_cop_pem4f.oem4f (.data:ti_sysbios_gates_GateMutex_Module__root__V)
                  20002d1c    00000008     app_cop_pem4f.oem4f (.data:ti_sysbios_hal_Hwi_Module__root__V)
                  20002d24    00000008     app_cop_pem4f.oem4f (.data:ti_sysbios_heaps_HeapCallback_Module__root__V)
                  20002d2c    00000008     app_cop_pem4f.oem4f (.data:ti_sysbios_heaps_HeapMem_Module__root__V)
                  20002d34    00000008     app_cop_pem4f.oem4f (.data:ti_sysbios_knl_Clock_Module__root__V)
                  20002d3c    00000008     app_cop_pem4f.oem4f (.data:ti_sysbios_knl_Event_Module__root__V)
                  20002d44    00000008     app_cop_pem4f.oem4f (.data:ti_sysbios_knl_Mailbox_Module__root__V)
                  20002d4c    00000008     app_cop_pem4f.oem4f (.data:ti_sysbios_knl_Queue_Module__root__V)
                  20002d54    00000008     app_cop_pem4f.oem4f (.data:ti_sysbios_knl_Semaphore_Module__root__V)
                  20002d5c    00000008     app_cop_pem4f.oem4f (.data:ti_sysbios_knl_Swi_Module__root__V)
                  20002d64    00000008     app_cop_pem4f.oem4f (.data:ti_sysbios_knl_Task_Module__root__V)
                  20002d6c    00000004     maclib_osal_tirtos_cc13x2_26x2.a : osal_port.obj (.data)
                  20002d70    00000004     maclib_secure_cc13x2_zstack_subg.a : lmac_global.obj (.data)
                  20002d74    00000004     mt_mac.obj (.data)
                  20002d78    00000004     rtsv7M4_T_le_v4SPD16_eabi.lib : stkdepth_vars.c.obj (.data)
                  20002d7c    00000004     app_cop_pem4f.oem4f (.data:ti_sysbios_family_arm_m3_Hwi_Module_State_0_excContext__A)
                  20002d80    00000004     app_cop_pem4f.oem4f (.data:ti_sysbios_family_arm_m3_Hwi_Module_State_0_excStack__A)
                  20002d84    00000004     app_cop_pem4f.oem4f (.data:ti_sysbios_knl_Task_Module_State_0_idleTask__A)
                  20002d88    00000002     drivers_cc13x2.a : CryptoResourceCC26XX.oem4f (.data)
                  20002d8a    00000002                      : TRNGCC26XX.oem4f (.data)
                  20002d8c    00000002     app_cop_pem4f.oem4f (.data:ti_sysbios_family_arm_m3_Hwi_Module_State_0_excActive__A)
                  20002d8e    00000001     drivers_cc13x2.a : NVS.oem4f (.data)
                  20002d8f    00000001                      : UART.oem4f (.data)
                  20002d90    00000001     maclib_secure_cc13x2_zstack_subg.a : mac_sleep.obj (.data)
                  20002d91    00000001     npi_tl.obj (.data)
                  20002d92    00000001     rf_multiMode_cc13x2.aem4f : rf_patch_cpe_ieee_802_15_4.c.cc13x2.ccs.o (.data)
                  20002d93    00000001                               : rf_patch_cpe_prop.c.cc13x2.ccs.o (.data)

.bss       0    20002d98    00000f9a     UNINITIALIZED
                  20002d98    00000200     app_cop_pem4f.oem4f (.bss:taskStackSection)
                  20002f98    000001b4     (.common:uartCC26XXObjects)
                  2000314c    000000fc     (.common:enhancedAckBuf)
                  20003248    000000f8     maclib_secure_cc13x2_zstack_subg.a : mac_radio.obj (.bss:RF_object$28)
                  20003340    000000d8     (.common:ti_sysbios_family_arm_m3_Hwi_dispatchTable)
                  20003418    0000009c                                        : mac_duty_cycle.obj (.bss:$O30$$)
                  200034b4    0000008c     (.common:FHPIB_db)
                  20003540    00000088     (.common:FH_hnd)
                  200035c8    00000088     (.common:macPib)
                  20003650    0000007c     (.common:pinHandleTable)
                  200036cc    0000007a     (.common:FHNT_tableOpt)
                  20003746    00000001                                        : mac_tx.obj (.bss)
                  20003747    00000001     rf_multiMode_cc13x2.aem4f : RFCC26X2_multiMode.c.cc13x2.ccs.o (.bss)
                  20003748    00000054     (.common:macScan)
                  2000379c    00000050     drivers_cc13x2.a : PINCC26XX.oem4f (.bss:pinSemaphore)
                  200037ec    00000050     (.common:CryptoResourceCC26XX_accessSemaphore)
                  2000383c    00000050     (.common:CryptoResourceCC26XX_operationSemaphore)
                  2000388c    00000042     (.common:FHFSM_Dbg)
                  200038ce    00000001     (.common:driverlib_release_0_59146)
                  200038cf    00000001     (.common:macAckTxActive)
                  200038d0    00000040     (.common:macSecurityPib)
                  20003910    0000003c     (.common:macBeaconCoord)
                  2000394c    00000038     (.common:FHNT_hnd)
                  20003984    00000038     (.common:macDeviceAction1)
                  200039bc    00000034                      : PINCC26XX.oem4f (.bss:pinSwi)
                  200039f0    00000034     (.common:macBeaconDevice)
                  20003a24    00000030     (.common:macMgmtAction1)
                  20003a54    0000002c     (.common:macCoord)
                  20003a80    0000002c     (.common:macDevice)
                  20003aac    00000028     maclib_secure_cc13x2_zstack_subg.a : mac_rx.obj (.bss:$O26$$)
                  20003ad4    00000028     mt_ext.obj (.bss:$O4$$)
                  20003afc    00000020     drivers_cc13x2.a : PINCC26XX.oem4f (.bss:pinGpioConfigTable)
                  20003b1c    00000020     ti_drivers_config.obj (.bss:uartCC26XXRingBuffer0)
                  20003b3c    00000020     (.common:macBeacon)
                  20003b5c    0000001c     drivers_cc13x2.a : TRNGCC26XX.oem4f (.bss:TRNGCC26XX_hwi)
                  20003b78    0000001c                      : TRNGCC26XX.oem4f (.bss:entropyPool)
                  20003b94    0000001c                      : PINCC26XX.oem4f (.bss:pinHwi)
                  20003bb0    0000001c     (.common:CryptoResourceCC26XX_hwi)
                  20003bcc    0000001c     (.common:macCoordAction2)
                  20003be8    0000001c     (.common:macReset)
                  20003c04    00000018     (.common:aesccmCC26XXObjects)
                  20003c1c    00000018     (.common:macScanAction)
                  20003c34    00000014     rf_multiMode_cc13x2.aem4f : RFCC26X2_multiMode.c.cc13x2.ccs.o (.bss:RF_ratSyncCmd)
                  20003c48    00000014     drivers_cc13x2.a : Random.oem4f (.bss:state)
                  20003c5c    00000014     (.common:macDeviceAction2)
                  20003c70    00000014     (.common:macMgmtAction2)
                  20003c84    00000010     (.common:macBeaconDeviceAction)
                  20003c94    00000010     (.common:macCoordAction3)
                  20003ca4    00000010     (.common:macData)
                  20003cb4    00000010     (.common:macDataTxDelay)
                  20003cc4    0000000c                      : NVSCC26XX.oem4f (.bss)
                  20003cd0    0000000c     (.common:macMain)
                  20003cdc    00000008     (.common:FHNT_tempTable)
                  20003ce4    00000008     (.common:macBeaconCoordAction1)
                  20003cec    00000008     (.common:macCoordAction1)
                  20003cf4    00000006     (.common:FHNT_Dbg)
                  20003cfa    00000001     (.common:macMgmt)
                  20003cfb    00000001     (.common:macPanCoordinator)
                  20003cfc    00000004                      : PINCC26XX.oem4f (.bss)
                  20003d00    00000004     (.common:AESCCM_handle)
                  20003d04    00000004     (.common:FH_test_var)
                  20003d08    00000004     (.common:PowerCC26XX_swiKey)
                  20003d0c    00000004     (.common:PowerCC26XX_taskKey)
                  20003d10    00000004     (.common:macCryptoDrvTblPtr)
                  20003d14    00000004     (.common:macRxSymbol)
                  20003d18    00000004     (.common:macTimerActive)
                  20003d1c    00000004     (.common:nvsCC26XXObjects)
                  20003d20    00000004     (.common:timerAlignedQ)
                  20003d24    00000004     (.common:timerUnalignedQ)
                  20003d28    00000001     (.common:macPhyChannel)
                  20003d29    00000001     (.common:macPwr)
                  20003d2a    00000001     (.common:macRxActive)
                  20003d2b    00000001     (.common:macRxEnableFlags)
                  20003d2c    00000001     (.common:macRxOutgoingAckFlag)
                  20003d2d    00000001     (.common:macSymbolTimerImpending)
                  20003d2e    00000001     (.common:macTaskId)
                  20003d2f    00000001     (.common:macTxActive)
                  20003d30    00000001     (.common:macUnitBackoffPeriod)
                  20003d31    00000001     (.common:rxFhRsl)

.vtable    0    20003d32    00000000     UNINITIALIZED

.vtable_ram 
*          0    20003d32    00000000     UNINITIALIZED

vtable_ram 
*          0    20003d32    00000000     UNINITIALIZED

.sysmem    0    20003d32    00000000     UNINITIALIZED

.nonretenvar 
*          0    20003d32    00000000     UNINITIALIZED

.stack     0    20013aa0    00000560     UNINITIALIZED
                  20013aa0    00000560     --HOLE--

.bootVecs 
*          0    00000000    00000008     DSECT
                  00000000    00000008     boot.aem4f : boot.oem4f (.bootVecs)

.resetVecs 
*          0    00000000    0000003c     
                  00000000    0000003c     app_cop_pem4f.oem4f (.resetVecs)

.vecs      0    20000000    000000d8     NOLOAD SECTION
                  20000000    000000d8     app_cop_pem4f.oem4f (.vecs)

xdc.meta   0    00000000    00000122     COPY SECTION
                  00000000    00000122     app_cop_pem4f.oem4f (xdc.meta)

xdc.noload 
*          0    00000000    00000000     COPY SECTION

.data:RAM_MAC_BASE_ADDR 
*          0    2000010c    00000010     UNINITIALIZED
                  2000010c    00000010     maclib_secure_cc13x2_zstack_subg.a : rom_init_154.obj (.data:RAM_MAC_BASE_ADDR)

.text.1    0    000024a8    000141a4     
                  000024a8    000004b0     rf_multiMode_cc13x2.aem4f : RFCC26X2_multiMode.c.cc13x2.ccs.o (.text:RF_fsmActiveState)
                  00002958    00000468     maclib_secure_cc13x2_zstack_subg.a : mac_radio_tx.obj (.text:macRadioTxGoSubG$38)
                  00002dc0    00000444                                        : mac_hl_patch.obj (.text:macWrapperAddDevice)
                  00003204    00000434     nvocmp.obj (.text:NVOCMP_initNv$21)
                  00003638    000003ac     maclib_secure_cc13x2_zstack_subg.a : mac.obj (.text:macRxCb)
                  000039e4    0000037c                                        : mac_rx.obj (.text:rxPayloadIsr$29)
                  00003d60    00000330     api_mac.obj (.text:processIncomingICallMsg$15)
                  00004090    00000318     maclib_secure_cc13x2_zstack_subg.a : mac_hl_patch.obj (.text:macBuildHeader)
                  000043a8    00000310                                        : mac_radio_tx.obj (.text:macRadioCsmaTxCb)
                  000046b8    000002ec                                        : mac_tx.obj (.text:macTxFrame)
                  000049a4    000002e0                                        : mac_hl_patch.obj (.text:macScanNextChan)
                  00004c84    000002dc     npi_task.obj (.text:NPITask_Fxn)
                  00004f60    000002c0     nvocmp.obj (.text:NVOCMP_compactPage$21)
                  00005220    000002c0     mcp.obj (.text:processMsg$2)
                  000054e0    00000284     maclib_secure_cc13x2_zstack_subg.a : mac_ebeacon.obj (.text:macRxEnhancedBeaconReq)
                  00005764    00000280                                        : mac_pwr.obj (.text:macPwrVote)
                  000059e4    00000274     nvocmp.obj (.text:NVOCMP_compact$21)
                  00005c58    0000025c     maclib_secure_cc13x2_zstack_subg.a : mac_tx.obj (.text:txCsmaPrep$32)
                  00005eb4    00000228     mt_sys.obj (.text:MtSys_commandProcessing)
                  000060dc    00000220     main.obj (.text:taskFxn$1)
                  000062fc    0000021c     maclib_secure_cc13x2_zstack_subg.a : mac.obj (.text:macSendReceiveCmdIeee)
                  00006518    00000218                                        : mac_radio.obj (.text:macRadioInitSubG)
                  00006730    00000214                                        : mac.obj (.text:macSendReceiveCmdSubG)
                  00006944    00000210     rf_multiMode_cc13x2.aem4f : RFCC26X2_multiMode.c.cc13x2.ccs.o (.text:RF_scheduleCmd)
                  00006b54    00000208     nvocmp.obj (.text:NVOCMP_addItem$21)
                  00006d5c    00000200     rf_multiMode_cc13x2.aem4f : RFCC26X2_multiMode.c.cc13x2.ccs.o (.text:RF_open)
                  00006f5c    000001f4     maclib_secure_cc13x2_zstack_subg.a : mac_radio_tx.obj (.text:macRadioTxAck$38)
                  00007150    000001e0     drivers_cc13x2.a : PINCC26XX.oem4f (.text:PIN_init)
                  00007330    000001e0     maclib_secure_cc13x2_zstack_subg.a : mac_hl_patch.obj (.text:macWrapperAddKeyInitFCtr)
                  00007510    000001d4     rf_multiMode_cc13x2.aem4f : RFCC26X2_multiMode.c.cc13x2.ccs.o (.text:RF_dispatchNextCmd)
                  000076e4    000001ac     maclib_secure_cc13x2_zstack_subg.a : mac_hl_patch.obj (.text:macRxBeaconCritical)
                  00007890    000001a4                                        : mac_hl_patch.obj (.text:macWrapperDeleteKeyAndAssociatedDevices)
                  00007a34    000001a0                                        : mac_radio_tx.obj (.text:macRadioTxGoIeee$38)
                  00007bd4    0000019c                                        : mac_hl_patch.obj (.text:macIncomingFrameSecurityMaterialRetrieval)
                  00007d70    00000198     drivers_cc13x2.a : PowerCC26X2.oem4f (.text:Power_sleep)
                  00007f08    00000198     maclib_secure_cc13x2_zstack_subg.a : mac_hl_patch.obj (.text:macWrapperDeleteDevice)
                  000080a0    00000190     drivers_cc13x2.a : PowerCC26X2_calibrateRCOSC.oem4f (.text:calibrateRcoscHf1)
                  00008230    0000018c     maclib_secure_cc13x2_zstack_subg.a : mac_hl_patch.obj (.text:macIncomingFrameSecurity)
                  000083bc    0000018c     drivers_cc13x2.a : PowerCC26X2_calibrateRCOSC.oem4f (.text:runCalibrateFsm)
                  00008548    0000017c     mt_mac.obj (.text:MtMac_BeaconNotifyInd)
                  000086c4    00000178     maclib_secure_cc13x2_zstack_subg.a : mac_hl_patch.obj (.text:macSetDefaultsByPhyID)
                  0000883c    00000174     mt_util.obj (.text:MtUtil_commandProcessing)
                  000089b0    00000174     drivers_cc13x2.a : PowerCC26X2.oem4f (.text:Power_init)
                  00008b24    0000016c     maclib_secure_cc13x2_zstack_subg.a : mac_radio_tx.obj (.text:macRadioTxPrepCsmaUnslotted)
                  00008c90    00000164     drivers_cc13x2.a : UARTCC26XX.oem4f (.text:UARTCC26XX_open)
                  00008df4    00000164     maclib_secure_cc13x2_zstack_subg.a : mac_hl_patch.obj (.text:macWrapperDeleteAllDevices)
                  00008f58    00000164                                        : mac_tx.obj (.text:txCsmaDelay)
                  000090bc    00000158     driverlib.lib : sys_ctrl.obj (.text:NOROM_SysCtrlStandby)
                  00009214    00000154     mt.obj (.text:MT_sendResponse)
                  00009368    00000154     nvocmp.obj (.text:NVOCMP_findItem$21)
                  000094bc    00000154     rf_multiMode_cc13x2.aem4f : RFCC26X2_multiMode.c.cc13x2.ccs.o (.text:RF_radioOpDoneCb)
                  00009610    00000154     drivers_cc13x2.a : UARTCC26XX.oem4f (.text:UARTCC26XX_hwiIntFxn)
                  00009764    0000014c     maclib_secure_cc13x2_zstack_subg.a : mac_hl_patch.obj (.text:macScanRxBeacon)
                  000098b0    00000148     rf_multiMode_cc13x2.aem4f : RFCC26X2_multiMode.c.cc13x2.ccs.o (.text:RF_fsmSetupState)
                  000099f8    00000148     maclib_secure_cc13x2_zstack_subg.a : mac_radio_tx.obj (.text:macRadioLbtTxCb)
                  00009b40    00000140     drivers_cc13x2.a : AESCCMCC26XX.oem4f (.text:AESCCM_startOperation)
                  00009c80    0000013c     rf_multiMode_cc13x2.aem4f : RFCC26X2_multiMode.c.cc13x2.ccs.o (.text:RF_ratSetupChannel)
                  00009dbc    0000013a     drivers_cc13x2.a : UARTCC26XX.oem4f (.text:UARTCC26XX_read)
                  00009ef6    00000002     ti_drivers_config.obj (.text:Board_initHook)
                  00009ef8    00000138     drivers_cc13x2.a : NVSCC26XX.oem4f (.text:NVSCC26XX_write)
                  0000a030    00000138     rf_multiMode_cc13x2.aem4f : RFCC26X2_multiMode.c.cc13x2.ccs.o (.text:RF_abortCmd)
                  0000a168    00000138     maclib_secure_cc13x2_zstack_subg.a : mac_hl_patch.obj (.text:macBuildDataFrame)
                  0000a2a0    00000138                                        : mac_low_level.obj (.text:macLowLevelBufferInit)
                  0000a3d8    00000130                                        : mac_radio.obj (.text:macRadioInitIeee)
                  0000a508    00000120     rf_multiMode_cc13x2.aem4f : RFCC26X2_multiMode.c.cc13x2.ccs.o (.text:RF_close)
                  0000a628    00000120     drivers_cc13x2.a : PowerCC26X2.oem4f (.text:configureXOSCHF)
                  0000a748    00000118     maclib_secure_cc13x2_zstack_subg.a : mac.obj (.text:macSetupRATChanCompare)
                  0000a860    00000114     macTask.obj (.text:MAC_CbackEvent)
                  0000a974    00000114     drivers_cc13x2.a : PINCC26XX.oem4f (.text:PINCC26XX_setIoCfg)
                  0000aa88    00000112     rf_multiMode_cc13x2.aem4f : RFCC26X2_multiMode.c.cc13x2.ccs.o (.text:RF_decodeOverridePointers)
                  0000ab9a    00000002                               : rfc.c.cc13x2.ccs.o (.text:NOROM_RFCCpePatchReset)
                  0000ab9c    00000110     maclib_secure_cc13x2_zstack_subg.a : mac_hl_patch.obj (.text:macEdScanISR)
                  0000acac    0000010c     driverlib.lib : setup.obj (.text:TrimAfterColdResetWakeupFromShutDown$57)
                  0000adb8    0000010c     mt_mac.obj (.text:macDataReq$5)
                  0000aec4    00000106     app_cop_pem4f.oem4f (.text:xdc_runtime_System_printfExtend__I)
                  0000afca    00000002     rf_multiMode_cc13x2.aem4f : RFCC26X2_multiMode.c.cc13x2.ccs.o (.text:RF_defaultCallback)
                  0000afcc    00000104                               : RFCC26X2_multiMode.c.cc13x2.ccs.o (.text:RF_hwiCpe0Active)
                  0000b0d0    000000fc     maclib_secure_cc13x2_zstack_subg.a : mac_hl_patch.obj (.text:macOutgoingFrameKeyDescRetrieval)
                  0000b1cc    000000f0     rf_multiMode_cc13x2.aem4f : RFCC26X2_multiMode.c.cc13x2.ccs.o (.text:RF_fsmPowerUpState)
                  0000b2bc    000000f0     maclib_secure_cc13x2_zstack_subg.a : mac_hl_patch.obj (.text:macRxBeacon)
                  0000b3ac    000000ec     nvocmp.obj (.text:NVOCMP_cleanPage$21)
                  0000b498    000000ec     maclib_secure_cc13x2_zstack_subg.a : mac.obj (.text:macGetRFCmdDuration)
                  0000b584    000000e8                                        : mac.obj (.text:macSetupReceiveCmd)
                  0000b66c    000000e4                                        : mac_hl_patch.obj (.text:macOutgoingFrameSecurity)
                  0000b750    000000e4                                        : mac_hl_patch.obj (.text:macScanRxCoordRealign)
                  0000b834    000000e4                                        : mac_tx.obj (.text:macTxChannelBusyCallback)
                  0000b918    000000e4                                        : mac_rx.obj (.text:rxPostRxUpdates$29)
                  0000b9fc    000000e0     drivers_cc13x2.a : UARTCC26XX.oem4f (.text:UARTCC26XX_write)
                  0000badc    000000e0     mt_mac.obj (.text:macStartReq$5)
                  0000bbbc    000000dc     maclib_secure_cc13x2_zstack_subg.a : mac_hl_patch.obj (.text:macBuildHeaderIes)
                  0000bc98    000000d8     rf_multiMode_cc13x2.aem4f : RFCC26X2_multiMode.c.cc13x2.ccs.o (.text:RF_control)
                  0000bd70    000000d8                               : RFCC26X2_multiMode.c.cc13x2.ccs.o (.text:RF_pendCmd)
                  0000be48    000000d8     maclib_secure_cc13x2_zstack_subg.a : mac_hl_patch.obj (.text:macCcmStarTransform)
                  0000bf20    000000d8                                        : mac_tx.obj (.text:txComplete)
                  0000bff8    000000d4                                        : mac_hl_patch.obj (.text:MAC_MlmeScanReq)
                  0000c0cc    000000d2     mt_mac.obj (.text:MtMac_ScanCnf)
                  0000c19e    000000d2     rf_multiMode_cc13x2.aem4f : RFCC26X2_multiMode.c.cc13x2.ccs.o (.text:RF_updatePaConfiguration)
                  0000c270    000000d0                               : RFCC26X2_multiMode.c.cc13x2.ccs.o (.text:RF_swiHw)
                  0000c340    000000d0     maclib_secure_cc13x2_zstack_subg.a : mac_radio_tx.obj (.text:macRadioTxAckCb$38)
                  0000c410    000000cc                                        : mac_timer.obj (.text:macSymbolTimerTriggerCallback)
                  0000c4dc    000000ca     mt_mac.obj (.text:dataInd$5)
                  0000c5a6    00000002     rtsv7M4_T_le_v4SPD16_eabi.lib : _lock.c.obj (.text:_nop)
                  0000c5a8    000000c8     dpl_cc13x2.a : PowerCC26X2_tirtos.oem4f (.text:PowerCC26XX_standbyPolicy)
                  0000c670    000000c4     maclib_secure_cc13x2_zstack_subg.a : mac_hl_patch.obj (.text:macApiStartReq)
                  0000c734    000000c0                                        : mac_pwr.obj (.text:MAC_PwrOffReq)
                  0000c7f4    000000c0     nvocmp.obj (.text:NVOCMP_erase$21)
                  0000c8b4    000000c0     drivers_cc13x2.a : PowerCC26X2.oem4f (.text:Power_releaseDependency)
                  0000c974    000000c0                      : UARTCC26XX.oem4f (.text:UARTCC26XX_initIO)
                  0000ca34    000000c0     maclib_secure_cc13x2_zstack_subg.a : mac_hl_patch.obj (.text:macCoordReset)
                  0000caf4    000000c0                                        : mac_hl_patch.obj (.text:macMgmtReset)
                  0000cbb4    000000bc     rf_multiMode_cc13x2.aem4f : RFCC26X2_multiMode.c.cc13x2.ccs.o (.text:RF_initRadioSetup)
                  0000cc70    000000bc     maclib_secure_cc13x2_zstack_subg.a : mac_hl_patch.obj (.text:macAutoPoll)
                  0000cd2c    000000b8     drivers_cc13x2.a : PowerCC26X2.oem4f (.text:Power_setDependency)
                  0000cde4    000000b8                      : UARTCC26XX.oem4f (.text:UARTCC26XX_initHw)
                  0000ce9c    000000b4                      : TRNGCC26XX.oem4f (.text:TRNG_generateEntropy)
                  0000cf50    000000b0     maclib_secure_cc13x2_zstack_subg.a : mac_autopend.obj (.text:MAC_SrcMatchAddEntry)
                  0000d000    000000b0                                        : mac_ebeacon.obj (.text:macBuildEBeaconNotifyInd)
                  0000d0b0    000000b0                                        : mac_radio.obj (.text:macRadioUpdateTxPower)
                  0000d160    000000b0                                        : mac.obj (.text:macStopCmd)
                  0000d210    000000ae     mt_mac.obj (.text:macScanReq$5)
                  0000d2be    00000002     main.obj (.text:assertHandler)
                  0000d2c0    000000ac     nvocmp.obj (.text:NVOCMP_readContItemApi$21)
                  0000d36c    000000ac     drivers_cc13x2.a : PINCC26XX.oem4f (.text:PIN_open)
                  0000d418    000000ac     maclib_secure_cc13x2_zstack_subg.a : mac_hl_patch.obj (.text:macApiBeaconStartReq)
                  0000d4c4    000000ac     macTask.obj (.text:macTaskInit)
                  0000d570    000000a8     driverlib.lib : setup.obj (.text:NOROM_SetupTrimDevice)
                  0000d618    000000a8     nvocmp.obj (.text:NVOCMP_initNvApi$21)
                  0000d6c0    000000a8     maclib_secure_cc13x2_zstack_subg.a : mac_hl_patch.obj (.text:macBeaconCheckTxTime)
                  0000d768    000000a8                                        : mac_hl_patch.obj (.text:macTrackTimeoutCallback)
                  0000d810    000000a4     rf_multiMode_cc13x2.aem4f : RFCC26X2_multiMode.c.cc13x2.ccs.o (.text:RF_ratRestartChannels)
                  0000d8b4    000000a4     maclib_secure_cc13x2_zstack_subg.a : mac_hl_patch.obj (.text:macCcmStarInverseTransform)
                  0000d958    000000a4                                        : mac_radio_tx.obj (.text:macRadioTxPrepLbt)
                  0000d9fc    000000a0     rf_multiMode_cc13x2.aem4f : RFCC26X2_multiMode.c.cc13x2.ccs.o (.text:RF_requestAccess)
                  0000da9c    000000a0     auto_init.aem4f : auto_init.oem4f (.text)
                  0000db3c    000000a0     maclib_secure_cc13x2_zstack_subg.a : mac_hl_patch.obj (.text:macBlacklistChecking)
                  0000dbdc    000000a0                                        : mac_radio.obj (.text:macRadioStartScan)
                  0000dc7c    000000a0     rom_sysbios.aem4f : rom_sysbios.obj (.text:ti_sysbios_knl_Task_setPri__E)
                  0000dd1c    0000009c     nvocmp.obj (.text:NVOCMP_readHeader$21)
                  0000ddb8    0000009c     maclib_secure_cc13x2_zstack_subg.a : mac_duty_cycle.obj (.text:macDutyCycleNotify$33)
                  0000de54    0000009c                                        : mac_radio.obj (.text:macRadioUpdateChannel)
                  0000def0    0000009c                                        : mac_radio.obj (.text:macRadioUpdateChannelRx)
                  0000df8c    0000009c                                        : mac_rx_onoff.obj (.text:macRxOffRequest)
                  0000e028    0000009c                                        : mac_timer.obj (.text:macTimerRealign)
                  0000e0c4    0000009c     rtsv7M4_T_le_v4SPD16_eabi.lib : memcpy_t2.asm.obj (.text)
                  0000e160    0000009c     mt_ext.obj (.text:sendFragment$4)
                  0000e1fc    00000098     npi_tl_uart.obj (.text:NPITLUART_initializeTransport)
                  0000e294    00000098     nvocmp.obj (.text:NVOCMP_updateItemApi$21)
                  0000e32c    00000098     rf_multiMode_cc13x2.aem4f : RFCC26X2_multiMode.c.cc13x2.ccs.o (.text:RF_calculateDispatchTime)
                  0000e3c4    00000098     api_mac.obj (.text:processBeaconNotifyInd$15)
                  0000e45c    00000098     mt_mac.obj (.text:sendCRSP$5)
                  0000e4f4    00000098     drivers_cc13x2.a : UARTCC26XX.oem4f (.text:writeTxFifoFlush)
                  0000e58c    00000096     mt_mac.obj (.text:macAddDeviceReq$5)
                  0000e622    00000096     rtsv7M4_T_le_v4SPD16_eabi.lib : ull_div_t2.asm.obj (.text)
                  0000e6b8    00000094     nvocmp.obj (.text:NVOCMP_getDstPage$21)
                  0000e74c    00000094     drivers_cc13x2.a : TRNGCC26XX.oem4f (.text:TRNGCC26XX_hwiFxn)
                  0000e7e0    00000094     board_led.obj (.text:board_led_blinkTimeoutCB$8)
                  0000e874    00000094     maclib_secure_cc13x2_zstack_subg.a : mac_hl_patch.obj (.text:macIncomingSecurityLevelChecking)
                  0000e908    00000094                                        : mac.obj (.text:macRatCb_A)
                  0000e99c    00000094                                        : mac.obj (.text:macSetupFsCmd)
                  0000ea30    00000092     drivers_cc13x2.a : UARTCC26XX.oem4f (.text:UARTCC26XX_writeCancel)
                  0000eac2    00000002                      : PowerCC26X2.oem4f (.text:emptyClockFunc)
                  0000eac4    00000090     maclib_secure_cc13x2_zstack_subg.a : mac_hl_patch.obj (.text:MAC_ResumeReq)
                  0000eb54    00000090     rf_multiMode_cc13x2.aem4f : RFCC26X2_multiMode.c.cc13x2.ccs.o (.text:RF_discardPendCmd)
                  0000ebe4    00000090                               : RFCC26X2_multiMode.c.cc13x2.ccs.o (.text:RF_getInfo)
                  0000ec74    00000090     maclib_secure_cc13x2_zstack_subg.a : mac_hl_patch.obj (.text:macCcmDecrypt)
                  0000ed04    00000090                                        : mac_hl_patch.obj (.text:macTrackStartCallback)
                  0000ed94    0000008c     api_mac.obj (.text:ApiMac_mlmeGetReqArrayLen)
                  0000ee20    0000008c     npi_task.obj (.text:NPITask_inititializeTask$11)
                  0000eeac    0000008c     maclib_osal_tirtos_cc13x2_26x2.a : osal_port.obj (.text:OsalPort_heapMalloc$51)
                  0000ef38    0000008c                                      : osal_port.obj (.text:OsalPort_setTimer)
                  0000efc4    0000008c     api_mac.obj (.text:copyDataInd$15)
                  0000f050    0000008c     maclib_secure_cc13x2_zstack_subg.a : mac_hl_patch.obj (.text:macCcmEncrypt)
                  0000f0dc    0000008c                                        : mac_radio_tx.obj (.text:macRadioTxEnhAckCb)
                  0000f168    0000008c     rom_sysbios.aem4f : rom_sysbios.obj (.text:ti_sysbios_gates_GateMutexPri_enter__E)
                  0000f1f4    00000088     api_mac.obj (.text:ApiMac_mlmeSetReqArray)
                  0000f27c    00000088     maclib_secure_cc13x2_zstack_subg.a : mac_autopend.obj (.text:MAC_SrcMatchEnable)
                  0000f304    00000088     driverlib.lib : osc.obj (.text:NOROM_OSCHF_AttemptToSwitchToXosc)
                  0000f38c    00000088     nvocmp.obj (.text:NVOCMP_deleteItemApi$21)
                  0000f414    00000088     rf_multiMode_cc13x2.aem4f : RFCC26X2_multiMode.c.cc13x2.ccs.o (.text:RF_cmdDispatchTime)
                  0000f49c    00000088                               : RFCC26X2_multiMode.c.cc13x2.ccs.o (.text:RF_getTxPower)
                  0000f524    00000088     drivers_cc13x2.a : PowerCC26X2_calibrateRCOSC.oem4f (.text:calibrateRcoscHf2)
                  0000f5ac    00000088                      : PowerCC26X2.oem4f (.text:disableLFClockQualifiers)
                  0000f634    00000088     maclib_secure_cc13x2_zstack_subg.a : mac_hl_patch.obj (.text:macKeyDescriptorLookup)
                  0000f6bc    00000088                                        : mac_mcu.obj (.text:macMcuOverflowSetPeriod)
                  0000f744    00000088                                        : mac_symbol_timer.obj (.text:macSymbolTimerInit)
                  0000f7cc    00000088     drivers_cc13x2.a : PowerCC26X2_calibrateRCOSC.oem4f (.text:updateSubSecInc)
                  0000f854    00000084     npi_tl.obj (.text:NPITL_writeTL)
                  0000f8d8    00000084     nvocmp.obj (.text:NVOCMP_createItemApi$21)
                  0000f95c    00000084     rf_multiMode_cc13x2.aem4f : RFCC26X2_multiMode.c.cc13x2.ccs.o (.text:RF_issueRadioFreeCb)
                  0000f9e0    00000084                               : RFCC26X2_multiMode.c.cc13x2.ccs.o (.text:RF_verifyGap)
                  0000fa64    00000084     drivers_cc13x2.a : UARTCC26XX.oem4f (.text:UARTCC26XX_close)
                  0000fae8    00000084     maclib_secure_cc13x2_zstack_subg.a : mac_timer.obj (.text:macTimerUpdateSymbolTimer)
                  0000fb6c    00000080     api_mac.obj (.text:ApiMac_init)
                  0000fbec    00000080     npi_tl_uart.obj (.text:NPITLUART_readCallBack$13)
                  0000fc6c    00000080     drivers_cc13x2.a : NVSCC26XX.oem4f (.text:NVSCC26XX_open)
                  0000fcec    00000080     maclib_secure_cc13x2_zstack_subg.a : mac_mcu.obj (.text:macMcuOverflowSetCompare)
                  0000fd6c    00000080                                        : mac_radio.obj (.text:macRadioWakeupCb)
                  0000fdec    00000080                                        : mac_autopend.obj (.text:macSrcMatchCheckSrcAddr$25)
                  0000fe6c    00000080                                        : mac_radio.obj (.text:scheduleNopWakeupCmd)
                  0000feec    00000080     rom_sysbios.aem4f : rom_sysbios.obj (.text:ti_sysbios_family_arm_cc26xx_Timer_start__E)
                  0000ff6c    00000080     maclib_secure_cc13x2_zstack_subg.a : mac_tx.obj (.text:txGo$32)
                  0000ffec    0000007c     nvocmp.obj (.text:NVOCMP_readItemApi$21)
                  00010068    0000007c     rf_multiMode_cc13x2.aem4f : RFCC26X2_multiMode.c.cc13x2.ccs.o (.text:RF_ratFreeChannel)
                  000100e4    0000007c     maclib_secure_cc13x2_zstack_subg.a : mac_rx_onoff.obj (.text:macRxOn)
                  00010160    0000007c     maclib_osal_tirtos_cc13x2_26x2.a : osal_port.obj (.text:osalHeapInitFxn)
                  000101dc    0000007a     rtsv7M4_T_le_v4SPD16_eabi.lib : memset_t2.asm.obj (.text)
                  00010256    00000002     drivers_cc13x2.a : CryptoResourceCC26XX.oem4f (.text:errorSpin)
                  00010258    00000078     board_led.obj (.text:Board_Led_control)
                  000102d0    00000078     nvocmp.obj (.text:NVOCMP_checkItem$21)
                  00010348    00000078     maclib_secure_cc13x2_zstack_subg.a : mac_timer.obj (.text:macTimerSetRollover)
                  000103c0    00000078     rom_sysbios.aem4f : rom_sysbios.obj (.text:ti_sysbios_heaps_HeapMem_allocUnprotected__E)
                  00010438    00000074     npi_task.obj (.text:NPITask_transportRXCallBack$11)
                  000104ac    00000074     nvocmp.obj (.text:NVOCMP_writeItemApi$21)
                  00010520    00000074     drivers_cc13x2.a : PowerCC26X2_calibrateRCOSC.oem4f (.text:PowerCC26X2_auxISR)
                  00010594    00000074     rf_multiMode_cc13x2.aem4f : RFCC26X2_multiMode.c.cc13x2.ccs.o (.text:RF_ratDisableChannel)
                  00010608    00000074                               : RFCC26X2_multiMode.c.cc13x2.ccs.o (.text:RF_yield)
                  0001067c    00000074     drivers_cc13x2.a : TRNGCC26XX.oem4f (.text:TRNG_construct)
                  000106f0    00000074     maclib_secure_cc13x2_zstack_subg.a : mac_duty_cycle.obj (.text:macDutyCycleByteToUSec)
                  00010764    00000074     rom_sysbios.aem4f : rom_sysbios.obj (.text:ti_sysbios_gates_GateMutexPri_leave__E)
                  000107d8    00000072     rf_multiMode_cc13x2.aem4f : RFCC26X2_multiMode.c.cc13x2.ccs.o (.text:RF_detachOverrides)
                  0001084a    00000002     maclib_secure_cc13x2_zstack_subg.a : mac_pwr.obj (.text:macApiPwrOnReq)
                  0001084c    00000070     drivers_cc13x2.a : AESCCMCC26XX.oem4f (.text:AESCCM_cleanup)
                  000108bc    00000070     rf_multiMode_cc13x2.aem4f : rfc.c.cc13x2.ccs.o (.text:NOROM_RFCAnaDivTxOverride)
                  0001092c    00000070     nvocmp.obj (.text:NVOCMP_eraseNvApi$21)
                  0001099c    00000070     rf_multiMode_cc13x2.aem4f : RFCC26X2_multiMode.c.cc13x2.ccs.o (.text:RF_getCurrentTime)
                  00010a0c    00000070     drivers_cc13x2.a : Random.oem4f (.text:Random_seedAutomatic)
                  00010a7c    0000006e     rf_multiMode_cc13x2.aem4f : RFCC26X2_multiMode.c.cc13x2.ccs.o (.text:RF_attachOverrides)
                  00010aea    0000006e                               : RFCC26X2_multiMode.c.cc13x2.ccs.o (.text:RF_howToSchedule)
                  00010b58    0000006e     mt_mac.obj (.text:macAssociateReq$5)
                  00010bc6    0000006e     mt_mac.obj (.text:macWriteKeyReq$5)
                  00010c34    0000006e     rtsv7M4_T_le_v4SPD16_eabi.lib : ll_div_t2.asm.obj (.text)
                  00010ca2    00000002     maclib_secure_cc13x2_zstack_subg.a : mac_mcu.obj (.text:macMcuBitReverse)
                  00010ca4    0000006d     rom_sysbios.aem4f : rom_sysbios.obj (.text:xdc_runtime_System_formatNum__I)
                  00010d11    00000001     --HOLE-- [fill = 0]
                  00010d12    00000002     maclib_secure_cc13x2_zstack_subg.a : mac_radio.obj (.text:macRadioSetRE)
                  00010d14    0000006c     driverlib.lib : chipinfo.obj (.text:NOROM_ChipInfo_GetChipType)
                  00010d80    0000006c     rf_multiMode_cc13x2.aem4f : RFCC26X2_multiMode.c.cc13x2.ccs.o (.text:RF_dispatchNextEvent)
                  00010dec    0000006c     maclib_secure_cc13x2_zstack_subg.a : mac_radio_tx.obj (.text:macRadioTxBackoffBoundary)
                  00010e58    0000006c                                        : mac_hl_patch.obj (.text:macTrackPeriodCallback)
                  00010ec4    0000006c                                        : mac_tx.obj (.text:macTxDoneCallback)
                  00010f30    00000068     driverlib.lib : osc.obj (.text:NOROM_OSCHF_SwitchToRcOscTurnOffXosc)
                  00010f98    00000068     nvocmp.obj (.text:NVOCMP_getFreeNvApi$21)
                  00011000    00000068     maclib_osal_tirtos_cc13x2_26x2.a : osal_port.obj (.text:OsalPort_registerTask)
                  00011068    00000068     rf_multiMode_cc13x2.aem4f : RFCC26X2_multiMode.c.cc13x2.ccs.o (.text:RF_hwiHw)
                  000110d0    00000068     rtsv7M4_T_le_v4SPD16_eabi.lib : copy_decompress_lzss.c.obj (.text:decompress:lzss:__TI_decompress_lzss)
                  00011138    00000068     maclib_secure_cc13x2_zstack_subg.a : mac_rx.obj (.text:macRxHaltCleanup)
                  000111a0    00000066                                        : mac_hl_patch.obj (.text:macMlmeSubIePresent)
                  00011206    00000002     rtsv7M4_T_le_v4SPD16_eabi.lib : div0.asm.obj (.text)
                  00011208    00000064     drivers_cc13x2.a : AESCCMCC26XX.oem4f (.text:AESCCM_waitForResult)
                  0001126c    00000064     nvocmp.obj (.text:NVOCMP_findSignature$21)
                  000112d0    00000064     maclib_osal_tirtos_cc13x2_26x2.a : osal_port.obj (.text:OsalPort_clearEvent)
                  00011334    00000064                                      : osal_port.obj (.text:OsalPort_pwrmgrTaskState)
                  00011398    00000064     drivers_cc13x2.a : UARTCC26XX.oem4f (.text:UARTCC26XX_control)
                  000113fc    00000064     maclib_secure_cc13x2_zstack_subg.a : mac.obj (.text:macRequestBackoff)
                  00011460    00000064                                        : mac_timer.obj (.text:macSymbolTimerRolloverCallback)
                  000114c4    00000064                                        : mac_timer.obj (.text:macTimerAddTimer)
                  00011528    00000062     ti_drivers_config.obj (.text:Board_sendExtFlashByte)
                  0001158a    00000062     rf_multiMode_cc13x2.aem4f : RFCC26X2_multiMode.c.cc13x2.ccs.o (.text:RF_syncCb)
                  000115ec    00000062     drivers_cc13x2.a : UARTCC26XX.oem4f (.text:UARTCC26XX_swiIntFxn)
                  0001164e    00000002     app_cop_pem4f.oem4f (.text:ti_sysbios_BIOS_nullFunc__I)
                  00011650    00000060     drivers_cc13x2.a : AESCCMCC26XX.oem4f (.text:AESCCM_hwiFxn)
                  000116b0    00000060                      : CryptoResourceCC26XX.oem4f (.text:CryptoResourceCC26XX_constructRTOSObjects)
                  00011710    00000060     rf_multiMode_cc13x2.aem4f : RFCC26X2_multiMode.c.cc13x2.ccs.o (.text:RF_applyRfCorePatch)
                  00011770    00000060     drivers_cc13x2.a : TRNGCC26XX.oem4f (.text:TRNGCC26XX_startTrng)
                  000117d0    00000060     maclib_secure_cc13x2_zstack_subg.a : mac_duty_cycle.obj (.text:macDutyCycleBumpBuffer$33)
                  00011830    00000060                                        : mac_radio.obj (.text:macGetRadioTxPowerReg)
                  00011890    00000060                                        : mac_timer.obj (.text:macTimerCancel)
                  000118f0    00000060                                        : mac_timer.obj (.text:macTimerGetNextTimer)
                  00011950    0000005e     api_mac.obj (.text:convertTxOptions)
                  000119ae    0000005c     npi_frame_mt.obj (.text:NPIFrame_frameMsg)
                  00011a0a    00000002     rom_sysbios.aem4f : rom_sysbios.obj (.text:ti_sysbios_heaps_HeapCallback_defaultDelete)
                  00011a0c    0000005c     nvocmp.obj (.text:NVOCMP_readItem$21)
                  00011a68    0000005c     maclib_osal_tirtos_cc13x2_26x2.a : osal_port.obj (.text:OsalPort_msgReceive)
                  00011ac4    0000005c                                      : osal_port.obj (.text:OsalPort_setEvent)
                  00011b20    0000005c     drivers_cc13x2.a : PINCC26XX.oem4f (.text:PIN_remove)
                  00011b7c    0000005c     rf_multiMode_cc13x2.aem4f : RFCC26X2_multiMode.c.cc13x2.ccs.o (.text:RF_hwiCpe0PowerFsm)
                  00011bd8    0000005c     drivers_cc13x2.a : NVSCC26XX.oem4f (.text:doErase)
                  00011c34    0000005c     mt_mac.obj (.text:macDisassociateReq$5)
                  00011c90    0000005c     maclib_secure_cc13x2_zstack_subg.a : mac_radio.obj (.text:macRadioSetChannel)
                  00011cec    0000005c                                        : mac_radio.obj (.text:macRadioSetChannelRx)
                  00011d48    0000005c                                        : mac_hl_patch.obj (.text:macSetDefaultsByPatch)
                  00011da4    0000005c     drivers_cc13x2.a : UARTCC26XX.oem4f (.text:startTxFifoEmptyClk)
                  00011e00    0000005c     app_cop_pem4f.oem4f (.text:xdc_runtime_Startup_getState__I)
                  00011e5c    00000058     npi_task.obj (.text:NPITask_incomingFrameCB$11)
                  00011eb4    00000058     nvocmp.obj (.text:NVOCMP_getItemLenApi$21)
                  00011f0c    00000058     drivers_cc13x2.a : PowerCC26X2_calibrateRCOSC.oem4f (.text:PowerCC26X2_initiateCalibration)
                  00011f64    00000058     rf_multiMode_cc13x2.aem4f : RFCC26X2_multiMode.c.cc13x2.ccs.o (.text:RF_TxPowerTable_findValue)
                  00011fbc    00000058     drivers_cc13x2.a : TRNGCC26XX.oem4f (.text:TRNG_init)
                  00012014    00000058     boot.aem4f : boot.oem4f (.text)
                  0001206c    00000058     maclib_secure_cc13x2_zstack_subg.a : mac_sleep.obj (.text:macCanSleep)
                  000120c4    00000058                                        : mac_radio_tx.obj (.text:macRadioTxRequestTxAck)
                  0001211c    00000058     main.obj (.text:main)
                  00012174    00000058     rom_sysbios.aem4f : rom_sysbios.obj (.text:ti_sysbios_heaps_HeapMem_alloc__E)
                  000121cc    00000056     rf_multiMode_cc13x2.aem4f : RFCC26X2_multiMode.c.cc13x2.ccs.o (.text:RF_defaultSubmitPolicy)
                  00012222    00000002     rom_sysbios.aem4f : rom_sysbios.obj (.text:xdc_runtime_SysCallback_defaultAbort)
                  00012224    00000054     drivers_cc13x2.a : AESCCMCC26XX.oem4f (.text:AESCCM_construct)
                  00012278    00000054     driverlib.lib : prcm.obj (.text:NOROM_PRCMPowerDomainsAllOff)
                  000122cc    00000054     npi_task.obj (.text:NPITask_createTask)
                  00012320    00000054     nvocmp.obj (.text:NVOCMP_doNVCRC$21)
                  00012374    00000054     drivers_cc13x2.a : NVSCC26XX.oem4f (.text:NVSCC26XX_init)
                  000123c8    00000054     rf_multiMode_cc13x2.aem4f : RFCC26X2_multiMode.c.cc13x2.ccs.o (.text:RF_fsmXOSCState)
                  0001241c    00000054     drivers_cc13x2.a : StructRingBuf.oem4f (.text:StructRingBuf_put)
                  00012470    00000054     dpl_cc13x2.a : SwiP_tirtos.oem4f (.text:SwiP_construct)
                  000124c4    00000054     mt_ext.obj (.text:abortFragMsg$4)
                  00012518    00000054     maclib_secure_cc13x2_zstack_subg.a : mac_duty_cycle.obj (.text:macDutyCycleUpdateTransmission)
                  0001256c    00000054                                        : mac_hl_patch.obj (.text:macIncomingKeyUsagePolicyChecking)
                  000125c0    00000054                                        : mac_tx.obj (.text:macTxAckReceivedCallback)
                  00012614    00000054     api_mac.obj (.text:processScanCnf$15)
                  00012668    00000050     nvocmp.obj (.text:NVOCMP_compactNvApi$21)
                  000126b8    00000050     drivers_cc13x2.a : TRNGCC26XX.oem4f (.text:TRNGCC26XX_waitForResult)
                  00012708    00000050     maclib_secure_cc13x2_zstack_subg.a : mac_radio.obj (.text:macRadioSetPanCoordinator)
                  00012758    00000050                                        : mac_rx_onoff.obj (.text:macRxDisable)
                  000127a8    00000050                                        : mac_timer.obj (.text:macTimerStart)
                  000127f8    0000004e     mt_mac.obj (.text:macOrphanRsp$5)
                  00012846    0000004c     mt_mac.obj (.text:MtMac_DataCnf)
                  00012892    00000002     rom_sysbios.aem4f : rom_sysbios.obj (.text:xdc_runtime_SysCallback_defaultExit)
                  00012894    0000004c     driverlib.lib : prcm.obj (.text:NOROM_PRCMPowerDomainsAllOn)
                  000128e0    0000004c     nvocmp.obj (.text:NVOCMP_setItemInactive$21)
                  0001292c    0000004c     maclib_osal_tirtos_cc13x2_26x2.a : osal_port.obj (.text:OsalPort_msgSend)
                  00012978    0000004c     rf_multiMode_cc13x2.aem4f : RFCC26X2_multiMode.c.cc13x2.ccs.o (.text:RF_wakeupNotification)
                  000129c4    0000004c     drivers_cc13x2.a : StructRingBuf.oem4f (.text:StructRingBuf_get)
                  00012a10    0000004c                      : UARTCC26XX.oem4f (.text:UARTCC26XX_readCancel)
                  00012a5c    0000004c     rtsv7M4_T_le_v4SPD16_eabi.lib : cpy_tbl.c.obj (.text:copy_in)
                  00012aa8    0000004c     mt_util.obj (.text:loopTimerCB$7)
                  00012af4    0000004c     mt_mac.obj (.text:macGetFhReq$5)
                  00012b40    0000004c     maclib_secure_cc13x2_zstack_subg.a : mac_low_level.obj (.text:macLowLevelYield)
                  00012b8c    0000004c                                        : mac_radio_tx.obj (.text:macRadioTxHandleAck)
                  00012bd8    0000004c                                        : mac.obj (.text:macSendFsCmd)
                  00012c24    0000004c     maclib_osal_tirtos_cc13x2_26x2.a : osal_port.obj (.text:osalHeapGetStatsFxn)
                  00012c70    0000004a     mt_mac.obj (.text:macAsyncReq$5)
                  00012cba    00000002     rom_sysbios.aem4f : rom_sysbios.obj (.text:xdc_runtime_SysCallback_defaultFlush)
                  00012cbc    00000048     ti_drivers_config.obj (.text:Board_wakeUpExtFlash)
                  00012d04    00000048     rf_multiMode_cc13x2.aem4f : rfc.c.cc13x2.ccs.o (.text:NOROM_RFCSynthPowerDown)
                  00012d4c    00000048     nvocmp.obj (.text:NVOCMP_write$21)
                  00012d94    00000048     drivers_cc13x2.a : NVS.oem4f (.text:NVS_open)
                  00012ddc    00000048                      : PINCC26XX.oem4f (.text:PIN_setOutputEnable)
                  00012e24    00000048                      : PowerCC26X2_calibrateRCOSC.oem4f (.text:PowerCC26X2_RCOSC_clockFunc)
                  00012e6c    00000048                      : PowerCC26X2.oem4f (.text:PowerCC26XX_switchXOSC_HF)
                  00012eb4    00000048     maclib_osal_tirtos_cc13x2_26x2.a : util_timer.obj (.text:UtilTimer_construct)
                  00012efc    00000048     drivers_cc13x2.a : NVSCC26XX.oem4f (.text:disableFlashCache)
                  00012f44    00000048     mt_mac.obj (.text:macAssociateRsp$5)
                  00012f8c    00000048     maclib_secure_cc13x2_zstack_subg.a : mac_duty_cycle.obj (.text:macDutyCycleCheck)
                  00012fd4    00000048     mt_mac.obj (.text:macPollReq$5)
                  0001301c    00000048     maclib_secure_cc13x2_zstack_subg.a : mac_radio.obj (.text:macRadioNeedAdjustPower)
                  00013064    00000048                                        : mac_radio.obj (.text:macRadioStopScan)
                  000130ac    00000048                                        : mac_timer.obj (.text:macTimerUpdActive)
                  000130f4    00000048     drivers_cc13x2.a : PowerCC26X2.oem4f (.text:switchXOSCHF)
                  0001313c    00000048                      : UARTCC26XX.oem4f (.text:writeFinishedDoCallback)
                  00013184    00000046                      : RingBuf.oem4f (.text:RingBuf_put)
                  000131ca    00000046     maclib_secure_cc13x2_zstack_subg.a : mac_hl_patch.obj (.text:macDeviceDescriptorLookup)
                  00013210    00000044                                        : mac_timer.obj (.text:MAC_PwrNextTimeout)
                  00013254    00000044     driverlib.lib : chipinfo.obj (.text:NOROM_ChipInfo_GetHwRevision)
                  00013298    00000044     drivers_cc13x2.a : NVSCC26XX.oem4f (.text:NVSCC26XX_read)
                  000132dc    00000044                      : PINCC26XX.oem4f (.text:PIN_swi)
                  00013320    00000044                      : UART.oem4f (.text:UART_init)
                  00013364    00000044     maclib_secure_cc13x2_zstack_subg.a : mac_hl_patch.obj (.text:macCheckPhyRate)
                  000133a8    00000044                                        : mac_tx.obj (.text:macTxTimestampCallback)
                  000133ec    00000044     mcp.obj (.text:relayRxMsg$2)
                  00013430    00000042     mt_mac.obj (.text:MtMac_CommStatusInd)
                  00013472    00000042     api_mac.obj (.text:copyMacPanDescToApiMacPanDesc$15)
                  000134b4    00000040     dpl_cc13x2.a : ClockP_tirtos.oem4f (.text:ClockP_construct)
                  000134f4    00000040                  : ClockP_tirtos.oem4f (.text:ClockP_create)
                  00013534    00000040     driverlib.lib : osc.obj (.text:NOROM_OSC_HPOSCRelativeFrequencyOffsetGet)
                  00013574    00000040     maclib_osal_tirtos_cc13x2_26x2.a : osal_port.obj (.text:OsalPort_heapFree$51)
                  000135b4    00000040     drivers_cc13x2.a : PowerCC26X2.oem4f (.text:PowerCC26XX_isStableXOSC_HF)
                  000135f4    00000040                      : Random.oem4f (.text:Random_getNumber)
                  00013634    00000040                      : RingBuf.oem4f (.text:RingBuf_get)
                  00013674    00000040                      : TRNGCC26XX.oem4f (.text:TRNGCC26XX_copyToClient)
                  000136b4    00000040                      : UART.oem4f (.text:UART_open)
                  000136f4    00000040     rf_multiMode_cc13x2.aem4f : rf_patch_cpe_prop.c.cc13x2.ccs.o (.text:configurePropPatch)
                  00013734    00000040     maclib_secure_cc13x2_zstack_subg.a : mac.obj (.text:macRatCb_B)
                  00013774    00000040                                        : mac_rx.obj (.text:macRxNokIsr)
                  000137b4    00000040                                        : mac_autopend.obj (.text:macSrcMatchSetEnableBit$25)
                  000137f4    00000040                                        : mac_symbol_timer.obj (.text:macSymbolTimerSetTrigger)
                  00013834    00000040                                        : mac_tx.obj (.text:macTxUpdateIE)
                  00013874    00000040     rtsv7M4_T_le_v4SPD16_eabi.lib : u_divt2.asm.obj (.text)
                  000138b4    00000040     rom_sysbios.aem4f : rom_sysbios.obj (.text:ti_sysbios_family_arm_cc26xx_Timer_setThreshold__I)
                  000138f4    00000040                       : rom_sysbios.obj (.text:ti_sysbios_heaps_HeapCallback_Module_startup__E)
                  00013934    0000003e     dpl_cc13x2.a : HwiP_tirtos.oem4f (.text:HwiP_construct)
                  00013972    0000003e     mt_mac.obj (.text:MtMac_SyncLossInd)
                  000139b0    0000003e     maclib_osal_tirtos_cc13x2_26x2.a : osal_port.obj (.text:OsalPort_msgEnqueueMax)
                  000139ee    00000002     rom_sysbios.aem4f : rom_sysbios.obj (.text:xdc_runtime_SysCallback_defaultPutch)
                  000139f0    0000003c     driverlib.lib : osc.obj (.text:InternCapArrayAdjustWithBaseline7001F$56)
                  00013a2c    0000003c     maclib_secure_cc13x2_zstack_subg.a : mac_pwr.obj (.text:MAC_PwrOnReq)
                  00013a68    0000003c     mt_sys.obj (.text:MtSys_resetReq)
                  00013aa4    0000003c     npi_tl.obj (.text:NPITL_transmissionCallBack$12)
                  00013ae0    0000003c     nvocmp.obj (.text:NVOCMP_disableCache$21)
                  00013b1c    0000003c     drivers_cc13x2.a : PINCC26XX.oem4f (.text:PIN_setOutputValue)
                  00013b58    0000003c     rf_multiMode_cc13x2.aem4f : RFCC26X2_multiMode.c.cc13x2.ccs.o (.text:RF_cmdGet)
                  00013b94    0000003c                               : RFCC26X2_multiMode.c.cc13x2.ccs.o (.text:RF_cmdStoreEvents)
                  00013bd0    0000003c     drivers_cc13x2.a : NVSCC26XX.oem4f (.text:checkEraseRange)
                  00013c0c    0000003c     maclib_secure_cc13x2_zstack_subg.a : mac_timer.obj (.text:macTimerRecalcUnaligned)
                  00013c48    0000003c                                        : mac_tx.obj (.text:macTxDecrypt)
                  00013c84    0000003c     rom_sysbios.aem4f : rom_sysbios.obj (.text:ti_sysbios_family_arm_m3_Hwi_construct2__E)
                  00013cc0    0000003a     maclib_osal_tirtos_cc13x2_26x2.a : mac_util.obj (.text:Util_bufferUint32)
                  00013cfa    00000038     api_mac.obj (.text:ApiMac_buildMsgCapInfo)
                  00013d32    00000002     --HOLE-- [fill = 0]
                  00013d34    00000038     ti_drivers_config.obj (.text:Board_shutDownExtFlash)
                  00013d6c    00000038     nvocmp.obj (.text:NVOCMP_findPage$21)
                  00013da4    00000038     drivers_cc13x2.a : PINCC26XX.oem4f (.text:PIN_setConfig)
                  00013ddc    00000038     rf_multiMode_cc13x2.aem4f : RFCC26X2_multiMode.c.cc13x2.ccs.o (.text:RF_checkCmdFsError)
                  00013e14    00000038                               : RFCC26X2_multiMode.c.cc13x2.ccs.o (.text:RF_powerConstraintRelease)
                  00013e4c    00000038     maclib_secure_cc13x2_zstack_subg.a : mac_timer.obj (.text:macTimerAligned)
                  00013e84    00000038                                        : mac_timer.obj (.text:macTimerInit)
                  00013ebc    00000038                                        : mac_tx.obj (.text:macTxAckNotReceivedCallback)
                  00013ef4    00000038                                        : mac_tx.obj (.text:macTxFrameIsr)
                  00013f2c    00000038     drivers_cc13x2.a : PowerCC26X2.oem4f (.text:notify)
                  00013f64    00000038                      : UARTCC26XX.oem4f (.text:readData)
                  00013f9c    00000038     rom_sysbios.aem4f : rom_sysbios.obj (.text:ti_sysbios_family_arm_cc26xx_Timer_getCurrentTick__E)
                  00013fd4    00000038     drivers_cc13x2.a : UARTCC26XX.oem4f (.text:writeData)
                  0001400c    00000036     api_mac.obj (.text:ApiMac_convertCapabilityInfo)
                  00014042    00000036     mt_mac.obj (.text:MtMac_AssociateInd)
                  00014078    00000036     rom_sysbios.aem4f : rom_sysbios.obj (.text:ti_sysbios_family_arm_cc26xx_Timer_setNextTick__E)
                  000140ae    00000002     --HOLE-- [fill = 0]
                  000140b0    00000034     driverlib.lib : sys_ctrl.obj (.text:NOROM_SysCtrlIdle)
                  000140e4    00000034     npi_rxbuf.obj (.text:NPIRxBuf_ReadFromRxBuf)
                  00014118    00000034     nvocmp.obj (.text:NVOCMP_verifyCRC$21)
                  0001414c    00000034     rf_multiMode_cc13x2.aem4f : RFCC26X2_multiMode.c.cc13x2.ccs.o (.text:RF_runDirectImmediateCmd)
                  00014180    00000034     mt_mac.obj (.text:macAdrToSba$5)
                  000141b4    00000034     maclib_secure_cc13x2_zstack_subg.a : mac_low_level.obj (.text:macLowLevelDiags)
                  000141e8    00000034                                        : mac_radio.obj (.text:macRadioSetIEEEAddr)
                  0001421c    00000034                                        : mac.obj (.text:macRatDisableChannelB)
                  00014250    00000034                                        : mac_symbol_timer.obj (.text:macSymbolTimerCount)
                  00014284    00000034     drivers_cc13x2.a : UARTCC26XX.oem4f (.text:readData2RingBuf)
                  000142b8    00000034     rom_sysbios.aem4f : rom_sysbios.obj (.text:ti_sysbios_knl_Swi_setPri__E)
                  000142ec    00000032     maclib_osal_tirtos_cc13x2_26x2.a : osal_port.obj (.text:OsalPort_msgExtract)
                  0001431e    00000032     rom_sysbios.aem4f : rom_sysbios.obj (.text:ti_sysbios_gates_GateMutexPri_insertPri__I)
                  00014350    00000030     npi_tl.obj (.text:NPITL_readTL)
                  00014380    00000030     nvocmp.obj (.text:NVOCMP_changePageState$21)
                  000143b0    00000030     drivers_cc13x2.a : NVSCC26XX.oem4f (.text:NVSCC26XX_erase)
                  000143e0    00000030                      : PINCC26XX.oem4f (.text:PINCC26XX_setMux)
                  00014410    00000030                      : PowerCC26X2.oem4f (.text:Power_releaseConstraint)
                  00014440    00000030                      : PowerCC26X2.oem4f (.text:Power_setConstraint)
                  00014470    00000030                      : TRNGCC26XX.oem4f (.text:TRNGCC26XX_fillEntropyPool)
                  000144a0    00000030     maclib_secure_cc13x2_zstack_subg.a : mac_ebeacon.obj (.text:macFindVendorSpecificIe)
                  000144d0    00000030                                        : mac_rx_onoff.obj (.text:macRxHardDisable)
                  00014500    00000030                                        : mac_rx_onoff.obj (.text:macRxSoftDisable)
                  00014530    00000030                                        : mac_symbol_timer.obj (.text:macSymbolTimerBCWakeUp)
                  00014560    00000030                                        : mac_symbol_timer.obj (.text:macSymbolTimerICallTimerCback)
                  00014590    00000030                                        : mac_timer.obj (.text:macTimerCheckUnAlignedQ)
                  000145c0    00000030     app_cop_pem4f.oem4f (.text:ti_sysbios_BIOS_atExitFunc__I)
                  000145f0    00000030     app_cop_pem4f.oem4f (.text:ti_sysbios_BIOS_startFunc__I)
                  00014620    00000030     rom_sysbios.aem4f : rom_sysbios.obj (.text:ti_sysbios_family_arm_cc26xx_Timer_initDevice__I)
                  00014650    00000030     app_cop_pem4f.oem4f (.text:ti_sysbios_gates_GateMutexPri_Object__create__S)
                  00014680    00000030     app_cop_pem4f.oem4f (.text:ti_sysbios_gates_GateMutexPri_create)
                  000146b0    00000030     app_cop_pem4f.oem4f (.text:ti_sysbios_heaps_HeapCallback_Object__create__S)
                  000146e0    00000030     rom_sysbios.aem4f : rom_sysbios.obj (.text:ti_sysbios_knl_Clock_getTimeout__E)
                  00014710    0000002e     maclib_osal_tirtos_cc13x2_26x2.a : osal_port.obj (.text:OsalPort_msgDequeue)
                  0001473e    0000002e                                      : osal_port.obj (.text:OsalPort_msgEnqueue)
                  0001476c    0000002e     rf_multiMode_cc13x2.aem4f : RFCC26X2_multiMode.c.cc13x2.ccs.o (.text:RF_queueEnd)
                  0001479a    0000002e     drivers_cc13x2.a : TRNGCC26XX.oem4f (.text:TRNGCC26XX_serviceJob)
                  000147c8    0000002c     mt_mac.obj (.text:MtMac_DisassociateInd)
                  000147f4    0000002c     drivers_cc13x2.a : NVS.oem4f (.text:NVS_init)
                  00014820    0000002c     rf_multiMode_cc13x2.aem4f : RFCC26X2_multiMode.c.cc13x2.ccs.o (.text:RF_executeDirectImmediateCmd)
                  0001484c    0000002c     dpl_cc13x2.a : SemaphoreP_tirtos.oem4f (.text:SemaphoreP_constructBinary)
                  00014878    0000002c                  : SemaphoreP_tirtos.oem4f (.text:SemaphoreP_createBinary)
                  000148a4    0000002c     drivers_cc13x2.a : TRNGCC26XX.oem4f (.text:TRNGCC26XX_stopTrng)
                  000148d0    0000002c     rf_multiMode_cc13x2.aem4f : rf_patch_cpe_ieee_802_15_4.c.cc13x2.ccs.o (.text:applyIeee802154Patch)
                  000148fc    0000002c                               : rf_patch_cpe_prop.c.cc13x2.ccs.o (.text:applyPropPatch)
                  00014928    0000002c     maclib_secure_cc13x2_zstack_subg.a : mac_duty_cycle.obj (.text:macDutyCycleTimerCB$33)
                  00014954    0000002c                                        : mac_radio.obj (.text:macRadioSetPanID)
                  00014980    0000002c                                        : mac_radio.obj (.text:macRadioSetShortAddr)
                  000149ac    0000002c                                        : mac_rx_onoff.obj (.text:macRxSoftEnable)
                  000149d8    0000002c                                        : mac_symbol_timer.obj (.text:macSymbolTimerSetRollover)
                  00014a04    0000002c                                        : mac_tx.obj (.text:macTxRequestCsmaRtcDelay)
                  00014a30    0000002c                                        : saddr.obj (.text:sAddrCmp)
                  00014a5c    0000002c     mt_ext.obj (.text:sendStatus$4)
                  00014a88    0000002c     app_cop_pem4f.oem4f (.text:ti_sysbios_gates_GateMutexPri_Handle__label__S)
                  00014ab4    0000002c     app_cop_pem4f.oem4f (.text:ti_sysbios_heaps_HeapCallback_Handle__label__S)
                  00014ae0    0000002c     rom_sysbios.aem4f : rom_sysbios.obj (.text:ti_sysbios_knl_Clock_getTicksUntilInterrupt__E)
                  00014b0c    0000002a     drivers_cc13x2.a : List.oem4f (.text:List_insert)
                  00014b36    0000002a     maclib_secure_cc13x2_zstack_subg.a : mac_autopend.obj (.text:MAC_SrcMatchDeleteEntry)
                  00014b60    0000002a     rf_multiMode_cc13x2.aem4f : RFCC26X2_multiMode.c.cc13x2.ccs.o (.text:RF_searchAndReplacePAOverride)
                  00014b8a    00000028     mt_mac.obj (.text:MtMac_DisassociateCnf)
                  00014bb2    00000028     rf_multiMode_cc13x2.aem4f : rfc.c.cc13x2.ccs.o (.text:NOROM_RFCOverrideSearch)
                  00014bda    00000002     --HOLE-- [fill = 0]
                  00014bdc    00000028     nvocmp.obj (.text:NVOCMP_findDstPage$21)
                  00014c04    00000028     nvocmp.obj (.text:NVOCMP_setCompactHdr$21)
                  00014c2c    00000028     drivers_cc13x2.a : PowerCC26X2.oem4f (.text:Power_registerNotify)
                  00014c54    00000028     rf_multiMode_cc13x2.aem4f : RFCC26X2_multiMode.c.cc13x2.ccs.o (.text:RF_calculateDeltaTimeUs)
                  00014c7c    00000028     board_led.obj (.text:board_led_anyBlinking$8)
                  00014ca4    00000028     maclib_secure_cc13x2_zstack_subg.a : mac_mcu.obj (.text:macMcuInit)
                  00014ccc    00000028                                        : mac_rx_onoff.obj (.text:macRxEnable)
                  00014cf4    00000028                                        : mac_tx.obj (.text:macTxAbortIsr)
                  00014d1c    00000028     drivers_cc13x2.a : PowerCC26X2.oem4f (.text:oscillatorISR)
                  00014d44    00000028                      : NVSCC26XX.oem4f (.text:restoreFlashCache)
                  00014d6c    00000026                      : List.oem4f (.text:List_put)
                  00014d92    00000026                      : List.oem4f (.text:List_putHead)
                  00014db8    00000026                      : List.oem4f (.text:List_remove)
                  00014dde    00000026     mt_mac.obj (.text:MtMac_OrphanInd)
                  00014e04    00000024     mt_mac.obj (.text:MtMac_PollInd)
                  00014e28    00000024     driverlib.lib : osc.obj (.text:NOROM_OSCHF_TurnOnXosc)
                  00014e4c    00000024     rf_multiMode_cc13x2.aem4f : rfc.c.cc13x2.ccs.o (.text:NOROM_RFCDoorbellSendTo)
                  00014e70    00000024                               : RFCC26X2_multiMode.c.cc13x2.ccs.o (.text:RF_cmdAlloc)
                  00014e94    00000024                               : RFCC26X2_multiMode.c.cc13x2.ccs.o (.text:RF_invokeGlobalCallback)
                  00014eb8    00000024     drivers_cc13x2.a : PowerCC26X2_calibrateRCOSC.oem4f (.text:getTdcSemaphore)
                  00014edc    00000024     maclib_secure_cc13x2_zstack_subg.a : mac_radio.obj (.text:macRadioSelectConfig$28)
                  00014f00    00000024                                        : mac_radio.obj (.text:macRadioSwInit)
                  00014f24    00000024                                        : mac.obj (.text:macSetCurrChan$24)
                  00014f48    00000024                                        : mac_symbol_timer.obj (.text:macSymbolTimerPowerDown)
                  00014f6c    00000024                                        : mac_timer.obj (.text:macTimer)
                  00014f90    00000024     rtsv7M4_T_le_v4SPD16_eabi.lib : memcmp.c.obj (.text:memcmp)
                  00014fb4    00000024     app_cop_pem4f.oem4f (.text:ti_sysbios_BIOS_registerRTSLock__I)
                  00014fd8    00000024     app_cop_pem4f.oem4f (.text:ti_sysbios_BIOS_removeRTSLock__I)
                  00014ffc    00000024     rom_sysbios.aem4f : rom_sysbios.obj (.text:ti_sysbios_family_arm_cc26xx_Timer_getMaxTicks__E)
                  00015020    00000024     app_cop_pem4f.oem4f (.text:ti_sysbios_gates_GateMutexPri_Object__delete__S)
                  00015044    00000024     app_cop_pem4f.oem4f (.text:ti_sysbios_heaps_HeapCallback_Object__delete__S)
                  00015068    00000022     drivers_cc13x2.a : CryptoUtils.oem4f (.text:CryptoUtils_buffersMatch)
                  0001508a    00000022                      : List.oem4f (.text:List_get)
                  000150ac    00000022     maclib_osal_tirtos_cc13x2_26x2.a : osal_port.obj (.text:OsalPort_msgAllocate)
                  000150ce    00000022     maclib_secure_cc13x2_zstack_subg.a : mac_radio.obj (.text:radioComputeED)
                  000150f0    00000020     ti_drivers_config.obj (.text:Board_init)
                  00015110    00000020     dpl_cc13x2.a : HwiP_tirtos.oem4f (.text:HwiP_setFunc)
                  00015130    00000020     maclib_secure_cc13x2_zstack_subg.a : mac_autopend.obj (.text:MAC_SrcMatchAckAllPending)
                  00015150    00000020     npi_rxbuf.obj (.text:NPIRxBuf_GetRxBufCount)
                  00015170    00000020     npi_tl_uart.obj (.text:NPITLUART_writeCallBack$13)
                  00015190    00000020     npi_tl.obj (.text:NPITL_getRxBufLen)
                  000151b0    00000020     npi_task.obj (.text:NPITask_transportTxDoneCallBack$11)
                  000151d0    00000020     nvocmp.obj (.text:NVOCMP_readByte$21)
                  000151f0    00000020     maclib_osal_tirtos_cc13x2_26x2.a : osal_port.obj (.text:OsalPort_memcmp)
                  00015210    00000020                                      : osal_port.obj (.text:OsalPort_msgDeallocate)
                  00015230    00000020     drivers_cc13x2.a : PINCC26XX.oem4f (.text:PINCC26XX_setIoCfgMux)
                  00015250    00000020                      : PowerCC26X2.oem4f (.text:Power_unregisterNotify)
                  00015270    00000020     rf_multiMode_cc13x2.aem4f : RFCC26X2_multiMode.c.cc13x2.ccs.o (.text:RF_clkPowerUp)
                  00015290    00000020                               : RFCC26X2_multiMode.c.cc13x2.ccs.o (.text:RF_hwiCpe0ChangePhy)
                  000152b0    00000020                               : RFCC26X2_multiMode.c.cc13x2.ccs.o (.text:RF_isStateTransitionAllowed)
                  000152d0    00000020                               : RFCC26X2_multiMode.c.cc13x2.ccs.o (.text:RF_ratIsRunning)
                  000152f0    00000020                               : RFCC26X2_multiMode.c.cc13x2.ccs.o (.text:RF_setTxPower)
                  00015310    00000020     crc.obj (.text:crc_update)
                  00015330    00000020     maclib_secure_cc13x2_zstack_subg.a : mac_radio.obj (.text:macGetRadioState)
                  00015350    00000020                                        : mac_rx_onoff.obj (.text:macRxOff)
                  00015370    00000020     mt_mac.obj (.text:macSbaToAdr$5)
                  00015390    00000020     maclib_secure_cc13x2_zstack_subg.a : mac_tx.obj (.text:macTxFrameRetransmit)
                  000153b0    00000020     drivers_cc13x2.a : UARTCC26XX.oem4f (.text:threadSafeStdbyDisRelease)
                  000153d0    00000020                      : UARTCC26XX.oem4f (.text:threadSafeStdbyDisSet)
                  000153f0    00000020     app_cop_pem4f.oem4f (.text:ti_sysbios_BIOS_rtsLock__I)
                  00015410    00000020     rom_sysbios.aem4f : rom_sysbios.obj (.text:ti_sysbios_family_arm_cc26xx_Timer_dynamicStub__E)
                  00015430    0000001e     maclib_osal_tirtos_cc13x2_26x2.a : osal_port.obj (.text:OsalPort_buildUint32)
                  0001544e    0000001e     drivers_cc13x2.a : PINCC26XX.oem4f (.text:PIN_close)
                  0001546c    0000001e                      : PowerCC26X2.oem4f (.text:Power_getTransitionLatency)
                  0001548a    0000001e     rf_multiMode_cc13x2.aem4f : rf_patch_cpe_ieee_802_15_4.c.cc13x2.ccs.o (.text:configureIeee802154Patch)
                  000154a8    0000001e     maclib_secure_cc13x2_zstack_subg.a : mac_hl_patch.obj (.text:macPibIndex)
                  000154c6    0000001e     mt_sys.obj (.text:parseNvExtId$6)
                  000154e4    0000001c     driverlib.lib : chipinfo.obj (.text:NOROM_ChipInfo_GetChipFamily)
                  00015500    0000001c                   : flash.obj (.text:NOROM_FlashProgram)
                  0001551c    0000001c                   : flash.obj (.text:NOROM_FlashSectorErase)
                  00015538    0000001c     npi_task.obj (.text:NPITask_sendBufToStack$11)
                  00015554    0000001c     nvocmp.obj (.text:NVOCMP_getCompactHdr$21)
                  00015570    0000001c     nvocmp.obj (.text:NVOCMP_writeByte$21)
                  0001558c    0000001c     drivers_cc13x2.a : NVSCC26XX.oem4f (.text:NVSCC26XX_getAttrs)
                  000155a8    0000001c                      : NVSCC26XX.oem4f (.text:NVSCC26XX_lock)
                  000155c4    0000001c                      : PINCC26XX.oem4f (.text:PIN_hwi)
                  000155e0    0000001c     dpl_cc13x2.a : PowerCC26X2_tirtos.oem4f (.text:PowerCC26XX_schedulerDisable)
                  000155fc    0000001c                  : PowerCC26X2_tirtos.oem4f (.text:PowerCC26XX_schedulerRestore)
                  00015618    0000001c     rf_multiMode_cc13x2.aem4f : RFCC26X2_multiMode.c.cc13x2.ccs.o (.text:RF_ScheduleCmdParams_init)
                  00015634    0000001c                               : RFCC26X2_multiMode.c.cc13x2.ccs.o (.text:RF_clkInactivityCallback)
                  00015650    0000001c                               : RFCC26X2_multiMode.c.cc13x2.ccs.o (.text:RF_getPAOverrideOffsetAndValue)
                  0001566c    0000001c                               : RFCC26X2_multiMode.c.cc13x2.ccs.o (.text:RF_getRssi)
                  00015688    0000001c                               : RFCC26X2_multiMode.c.cc13x2.ccs.o (.text:RF_powerConstraintSet)
                  000156a4    0000001c     maclib_secure_cc13x2_zstack_subg.a : mac_mcu.obj (.text:macMcuTimerCapture)
                  000156c0    0000001c                                        : mac.obj (.text:macNopBackoffTimerExpiry)
                  000156dc    0000001c                                        : mac_radio.obj (.text:macRadioEnergyDetectStop)
                  000156f8    0000001c                                        : mac_radio.obj (.text:macRadioInit)
                  00015714    0000001c                                        : mac_radio_tx.obj (.text:macRadioTxGo)
                  00015730    0000001c                                        : mac_rx.obj (.text:macRxAckTxDoneCallback)
                  0001574c    0000001c     mt_mac.obj (.text:macSbaToSec$5)
                  00015768    0000001c     mt_mac.obj (.text:macSecToSba$5)
                  00015784    0000001c     maclib_secure_cc13x2_zstack_subg.a : mac_timer.obj (.text:macTimerRemoveTimer)
                  000157a0    0000001c                                        : mac_rx.obj (.text:rxDone$29)
                  000157bc    0000001c                                        : saddr.obj (.text:sAddrExtCmp)
                  000157d8    0000001c     rom_sysbios.aem4f : rom_sysbios.obj (.text:ti_sysbios_knl_Swi_construct2__E)
                  000157f4    0000001a     mt_mac.obj (.text:MtMac_PollCnf)
                  0001580e    0000001a     mt_mac.obj (.text:MtMac_PurgeCnf)
                  00015828    0000001a     maclib_osal_tirtos_cc13x2_26x2.a : osal_port.obj (.text:OsalPort_enterCS)
                  00015842    0000001a     drivers_cc13x2.a : PowerCC26X2.oem4f (.text:PowerCC26XX_calibrate)
                  0001585c    0000001a     api_mac.obj (.text:copyApiMacAddrToMacAddr)
                  00015876    0000001a     maclib_secure_cc13x2_zstack_subg.a : mac_hl_patch.obj (.text:macCheckPhyMode)
                  00015890    0000001a                                        : mac_mcu.obj (.text:macMcuLongDiv)
                  000158aa    0000001a     api_mac.obj (.text:mlmeGetFhReq$15)
                  000158c4    00000018     driverlib.lib : chipinfo.obj (.text:NOROM_ChipInfo_GetPackageType)
                  000158dc    00000018     nvocmp.obj (.text:NVOCMP_expectCompApi$21)
                  000158f4    00000018     nvocmp.obj (.text:NVOCMP_restoreCache$21)
                  0001590c    00000018     maclib_osal_tirtos_cc13x2_26x2.a : osal_port.obj (.text:OsalPort_msgPush)
                  00015924    00000018     drivers_cc13x2.a : PowerCC26X2.oem4f (.text:Power_idleFunc)
                  0001593c    00000018     rf_multiMode_cc13x2.aem4f : RFCC26X2_multiMode.c.cc13x2.ccs.o (.text:RF_cancelCmd)
                  00015954    00000018                               : RFCC26X2_multiMode.c.cc13x2.ccs.o (.text:RF_swiFsm)
                  0001596c    00000018     dpl_cc13x2.a : SwiP_tirtos.oem4f (.text:SwiP_setPriority)
                  00015984    00000018     drivers_cc13x2.a : TRNGCC26XX.oem4f (.text:TRNGCC26XX_startJob)
                  0001599c    00000018                      : UART.oem4f (.text:UART_Params_init)
                  000159b4    00000018     maclib_osal_tirtos_cc13x2_26x2.a : util_timer.obj (.text:UtilTimer_isActive)
                  000159cc    00000018     rtsv7M4_T_le_v4SPD16_eabi.lib : args_main.c.obj (.text:_args_main)
                  000159e4    00000018     api_mac.obj (.text:copyMacAddrToApiMacAddr$15)
                  000159fc    00000018     maclib_secure_cc13x2_zstack_subg.a : mac_symbol_timer.obj (.text:macCsmaTimerExpiry)
                  00015a14    00000018                                        : mac_radio.obj (.text:macRadioSetTxPower)
                  00015a2c    00000018                                        : mac.obj (.text:macRxBackoffTimerExpiry)
                  00015a44    00000018                                        : mac_rx_onoff.obj (.text:macRxOnRequest)
                  00015a5c    00000018                                        : mac_autopend.obj (.text:macSrcMatchGetEnableBit$25)
                  00015a74    00000018                                        : mac_symbol_timer.obj (.text:macSymbolBCTimerPowerUp)
                  00015a8c    00000018                                        : mac_symbol_timer.obj (.text:macSymbolTimerRestore)
                  00015aa4    00000018                                        : mac_symbol_timer.obj (.text:macSymbolTimerSetTriggerRollover)
                  00015abc    00000018                                        : mac_timer.obj (.text:macTimerSyncRollover)
                  00015ad4    00000018                                        : mac.obj (.text:macTxBackoffTimerExpiry)
                  00015aec    00000018                                        : mac_hl_patch.obj (.text:macWrapper8ByteUnused)
                  00015b04    00000018     npi_frame_mt.obj (.text:npiframe_calcMTFCS$9)
                  00015b1c    00000018     rtsv7M4_T_le_v4SPD16_eabi.lib : ll_mul_t2.asm.obj (.text)
                  00015b34    00000018     maclib_secure_cc13x2_zstack_subg.a : mac_rx.obj (.text:rxDiscardFrame$29)
                  00015b4c    00000018     drivers_cc13x2.a : PowerCC26X2.oem4f (.text:switchToTCXO)
                  00015b64    00000018     app_cop_pem4f.oem4f (.text:ti_sysbios_BIOS_rtsUnlock__I)
                  00015b7c    00000018     rom_sysbios.aem4f : rom_sysbios.obj (.text:ti_sysbios_gates_GateMutexPri_Instance_init__E)
                  00015b94    00000018                       : rom_sysbios.obj (.text:ti_sysbios_heaps_HeapCallback_Instance_init__E)
                  00015bac    00000018                       : rom_sysbios.obj (.text:ti_sysbios_knl_Swi_or__E)
                  00015bc4    00000018     maclib_secure_cc13x2_zstack_subg.a : mac_tx.obj (.text:txCsmaGo$32)
                  00015bdc    00000018     rom_sysbios.aem4f : rom_sysbios.obj (.text:xdc_runtime_Error_init__E)
                  00015bf4    00000018     app_cop_pem4f.oem4f (.text:xdc_runtime_Startup_exec__I)
                  00015c0c    00000016     maclib_osal_tirtos_cc13x2_26x2.a : osal_port.obj (.text:OsalPort_leaveCS)
                  00015c22    00000016     rf_multiMode_cc13x2.aem4f : RFCC26X2_multiMode.c.cc13x2.ccs.o (.text:RF_restartClockTimeout)
                  00015c38    00000016     maclib_osal_tirtos_cc13x2_26x2.a : mac_util.obj (.text:Util_parseUint32)
                  00015c4e    00000016     app_cop_pem4f.oem4f (.text:ti_sysbios_BIOS_exitFunc__I)
                  00015c64    00000016     rom_sysbios.aem4f : rom_sysbios.obj (.text:ti_sysbios_knl_Task_block__E)
                  00015c7a    00000002     --HOLE-- [fill = 0]
                  00015c7c    00000014     drivers_cc13x2.a : AESCCMCC26XX.oem4f (.text:AESCCM_init)
                  00015c90    00000014                      : List.oem4f (.text:List_clearList)
                  00015ca4    00000014     macTask.obj (.text:MAC_CbackCheckPending)
                  00015cb8    00000014     macTask.obj (.text:MAC_CbackQueryRetransmit)
                  00015ccc    00000014     maclib_secure_cc13x2_zstack_subg.a : mac_autopend.obj (.text:MAC_SrcMatchCheckAllPending)
                  00015ce0    00000014     mt_mac.obj (.text:MtMac_AsyncCnf)
                  00015cf4    00000014     mt_mac.obj (.text:MtMac_StartCnf)
                  00015d08    00000014     rf_multiMode_cc13x2.aem4f : rfc.c.cc13x2.ccs.o (.text:NOROM_RFCCpeIntGetAndClear)
                  00015d1c    00000014     drivers_cc13x2.a : PowerCC26X2_calibrateRCOSC.oem4f (.text:PowerCC26X2_calibrate)
                  00015d30    00000014     rf_multiMode_cc13x2.aem4f : RFCC26X2_multiMode.c.cc13x2.ccs.o (.text:RF_Params_init)
                  00015d44    00000014                               : RFCC26X2_multiMode.c.cc13x2.ccs.o (.text:RF_RatConfigCompare_init)
                  00015d58    00000014                               : RFCC26X2_multiMode.c.cc13x2.ccs.o (.text:RF_dbellSyncOnAck)
                  00015d6c    00000014                               : RFCC26X2_multiMode.c.cc13x2.ccs.o (.text:RF_flushCmd)
                  00015d80    00000014                               : RFCC26X2_multiMode.c.cc13x2.ccs.o (.text:RF_ratCompare)
                  00015d94    00000014                               : RFCC26X2_multiMode.c.cc13x2.ccs.o (.text:RF_ratGetChannel)
                  00015da8    00000014     drivers_cc13x2.a : StructRingBuf.oem4f (.text:StructRingBuf_construct)
                  00015dbc    00000014                      : TRNGCC26XX.oem4f (.text:TRNG_close)
                  00015dd0    00000014     maclib_secure_cc13x2_zstack_subg.a : mac_mcu.obj (.text:macMcuOverflowCapture)
                  00015de4    00000014     mcp.obj (.text:relayTxMsg$2)
                  00015df8    00000014     maclib_secure_cc13x2_zstack_subg.a : saddr.obj (.text:sAddrCpy)
                  00015e0c    00000014                                        : saddr.obj (.text:sAddrExtCpy)
                  00015e20    00000014     mt_mac.obj (.text:sendSRSP$5)
                  00015e34    00000014     mt_sys.obj (.text:sendSRSP$6)
                  00015e48    00000014     rom_sysbios.aem4f : rom_sysbios.obj (.text:ti_sysbios_family_arm_cc26xx_Timer_getCount64__E)
                  00015e5c    00000014     app_cop_pem4f.oem4f (.text:ti_sysbios_heaps_HeapCallback_Object__get__S)
                  00015e70    00000014     app_cop_pem4f.oem4f (.text:ti_sysbios_knl_Clock_doTick__I)
                  00015e84    00000012     rf_multiMode_cc13x2.aem4f : RFCC26X2_multiMode.c.cc13x2.ccs.o (.text:RF_getCmdOp)
                  00015e96    00000012     drivers_cc13x2.a : RingBuf.oem4f (.text:RingBuf_construct)
                  00015ea8    00000012     dpl_cc13x2.a : SemaphoreP_tirtos.oem4f (.text:SemaphoreP_pend)
                  00015eba    00000012     mt_sys.obj (.text:mapNvError$6)
                  00015ecc    00000010     drivers_cc13x2.a : AESCCM.oem4f (.text:AESCCM_Params_init)
                  00015edc    00000010                      : AESCCM.oem4f (.text:AESCCM_open)
                  00015eec    00000010     dpl_cc13x2.a : ClockP_tirtos.oem4f (.text:ClockP_isActive)
                  00015efc    00000010                  : HwiP_tirtos.oem4f (.text:HwiP_Params_init)
                  00015f0c    00000010     rf_multiMode_cc13x2.aem4f : rfc.c.cc13x2.ccs.o (.text:NOROM_RFCHwIntGetAndClear)
                  00015f1c    00000010     drivers_cc13x2.a : PINCC26XX.oem4f (.text:PINCC26XX_getPinCount)
                  00015f2c    00000010     rf_multiMode_cc13x2.aem4f : RFCC26X2_multiMode.c.cc13x2.ccs.o (.text:RF_dbellSubmitCmdAsync)
                  00015f3c    00000010                               : RFCC26X2_multiMode.c.cc13x2.ccs.o (.text:RF_isClientOwner)
                  00015f4c    00000010     dpl_cc13x2.a : SwiP_tirtos.oem4f (.text:SwiP_Params_init)
                  00015f5c    00000010     rom_sysbios.aem4f : rom_sysbios.obj (.text:ti_sysbios_family_arm_m3_Hwi_post__E)
                  00015f6c    00000010                       : rom_sysbios.obj (.text:ti_sysbios_gates_GateMutexPri_Instance_finalize__E)
                  00015f7c    00000010                       : rom_sysbios.obj (.text:ti_sysbios_heaps_HeapCallback_Instance_finalize__E)
                  00015f8c    00000010                       : rom_sysbios.obj (.text:ti_sysbios_heaps_HeapCallback_alloc__E)
                  00015f9c    00000010                       : rom_sysbios.obj (.text:ti_sysbios_heaps_HeapCallback_free__E)
                  00015fac    00000010                       : rom_sysbios.obj (.text:ti_sysbios_heaps_HeapCallback_getStats__E)
                  00015fbc    00000010                       : rom_sysbios.obj (.text:ti_sysbios_heaps_HeapCallback_isBlocking__E)
                  00015fcc    00000010     maclib_secure_cc13x2_zstack_subg.a : mac_tx.obj (.text:txLbtPrep$32)
                  00015fdc    00000010     drivers_cc13x2.a : UARTCC26XX.oem4f (.text:uartPostNotify)
                  00015fec    0000000e                      : CryptoKeyPlaintextCC26XX.oem4f (.text:CryptoKeyPlaintext_initBlankKey)
                  00015ffa    0000000e                      : CryptoKeyPlaintextCC26XX.oem4f (.text:CryptoKeyPlaintext_initKey)
                  00016008    0000000e                      : NVS.oem4f (.text:NVS_write)
                  00016016    0000000e     rf_multiMode_cc13x2.aem4f : RFCC26X2_multiMode.c.cc13x2.ccs.o (.text:RF_getSwitchingTimeInUs)
                  00016024    0000000e     drivers_cc13x2.a : StructRingBuf.oem4f (.text:StructRingBuf_isFull)
                  00016032    0000000e     rtsv7M4_T_le_v4SPD16_eabi.lib : copy_decompress_none.c.obj (.text:decompress:none:__TI_decompress_none)
                  00016040    0000000e     rom_sysbios.aem4f : rom_sysbios.obj (.text:ti_sysbios_family_arm_cc26xx_TimestampProvider_get32__E)
                  0001604e    0000000c     drivers_cc13x2.a : AESCCMCC26XX.oem4f (.text:AESCCM_close)
                  0001605a    0000000c     dpl_cc13x2.a : ClockP_tirtos.oem4f (.text:ClockP_delete)
                  00016066    00000002     --HOLE-- [fill = 0]
                  00016068    0000000c                  : ClockP_tirtos.oem4f (.text:ClockP_getSystemTickPeriod)
                  00016074    0000000c     maclib_secure_cc13x2_zstack_subg.a : mac_pwr.obj (.text:MAC_PwrMode)
                  00016080    0000000c     driverlib.lib : cpu.obj (.text:NOROM_CPUcpsid)
                  0001608c    0000000c                   : cpu.obj (.text:NOROM_CPUcpsie)
                  00016098    0000000c     npi_tl.obj (.text:NPITL_checkNpiBusy)
                  000160a4    0000000c     nvocmp.obj (.text:NVOCMP_doRAMCRC$21)
                  000160b0    0000000c     drivers_cc13x2.a : NVSCC26XX.oem4f (.text:NVSCC26XX_unlock)
                  000160bc    0000000c     maclib_osal_tirtos_cc13x2_26x2.a : osal_port.obj (.text:OsalPort_clockFunc$51)
                  000160c8    0000000c                                      : osal_port.obj (.text:OsalPort_stopTimer)
                  000160d4    0000000c     drivers_cc13x2.a : PowerCC26X2.oem4f (.text:Power_getConstraintMask)
                  000160e0    0000000c                      : PowerCC26X2.oem4f (.text:Power_getDependencyCount)
                  000160ec    0000000c     rf_multiMode_cc13x2.aem4f : RFCC26X2_multiMode.c.cc13x2.ccs.o (.text:RF_powerConstraintGet)
                  000160f8    0000000c     dpl_cc13x2.a : SemaphoreP_tirtos.oem4f (.text:SemaphoreP_delete)
                  00016104    0000000c     maclib_osal_tirtos_cc13x2_26x2.a : mac_util.obj (.text:Util_bufferUint16)
                  00016110    0000000c                                      : mac_util.obj (.text:Util_parseUint16)
                  0001611c    0000000c     rtsv7M4_T_le_v4SPD16_eabi.lib : _lock.c.obj (.text:_register_lock)
                  00016128    0000000c                                   : _lock.c.obj (.text:_register_unlock)
                  00016134    0000000c     board_led.obj (.text:board_led_convertLedValue$8)
                  00016140    0000000c     mt_mac.obj (.text:copyExtAdr$5)
                  0001614c    0000000c     rtsv7M4_T_le_v4SPD16_eabi.lib : copy_zero_init.c.obj (.text:decompress:ZI:__TI_zero_init)
                  00016158    0000000c     maclib_secure_cc13x2_zstack_subg.a : mac_low_level.obj (.text:macLowLevelReset)
                  00016164    0000000c                                        : mac_low_level.obj (.text:macLowLevelResume)
                  00016170    0000000c                                        : mac_pwr.obj (.text:macPwrReset)
                  0001617c    0000000c                                        : mac.obj (.text:macRegisterSfdDetect)
                  00016188    0000000c                                        : mac_rx.obj (.text:macRxSequenceNum)
                  00016194    0000000c     mt_mac.obj (.text:sendDRSP$5)
                  000161a0    0000000c     mt_sys.obj (.text:sendDRSP$6)
                  000161ac    0000000c     mt_util.obj (.text:sendSRSP$7)
                  000161b8    0000000c     app_cop_pem4f.oem4f (.text:ti_sysbios_gates_GateMutexPri_Params__init__S)
                  000161c4    0000000c     rom_sysbios.aem4f : rom_sysbios.obj (.text:ti_sysbios_knl_Queue_insert__E)
                  000161d0    0000000c                       : rom_sysbios.obj (.text:ti_sysbios_knl_Swi_getTrigger__E)
                  000161dc    0000000c     main.obj (.text:userAssertHandler$1)
                  000161e8    0000000a     dpl_cc13x2.a : ClockP_tirtos.oem4f (.text:ClockP_Params_init)
                  000161f2    0000000a     maclib_secure_cc13x2_zstack_subg.a : fh_ie_patch.obj (.text:FHIEPATCH_getPieId)
                  000161fc    0000000a     drivers_cc13x2.a : NVS.oem4f (.text:NVS_erase)
                  00016206    0000000a                      : NVS.oem4f (.text:NVS_getAttrs)
                  00016210    0000000a                      : NVS.oem4f (.text:NVS_read)
                  0001621a    0000000a                      : UART.oem4f (.text:UART_control)
                  00016224    0000000a                      : UART.oem4f (.text:UART_read)
                  0001622e    0000000a                      : UART.oem4f (.text:UART_write)
                  00016238    0000000a     board_led.obj (.text:board_led_convertLedType$8)
                  00016242    0000000a     maclib_secure_cc13x2_zstack_subg.a : mac_mcu.obj (.text:macMcuRandomByte)
                  0001624c    0000000a     drivers_cc13x2.a : UARTCC26XX.oem4f (.text:readSemCallback)
                  00016256    00000008                      : AESCCM.oem4f (.text:AESCCM_Operation_init)
                  0001625e    00000008     mt_mac.obj (.text:MtMac_AsyncInd)
                  00016266    00000008     mt_mac.obj (.text:MtMac_DataInd)
                  0001626e    00000008     drivers_cc13x2.a : NVSCC26XX.oem4f (.text:NVSCC26XX_close)
                  00016276    00000008     rf_multiMode_cc13x2.aem4f : RFCC26X2_multiMode.c.cc13x2.ccs.o (.text:RF_RatConfigOutput_init)
                  0001627e    00000008     drivers_cc13x2.a : UARTCC26XX.oem4f (.text:UARTCC26XX_init)
                  00016286    00000008     maclib_osal_tirtos_cc13x2_26x2.a : mac_util.obj (.text:Util_breakUint32)
                  0001628e    00000008     drivers_cc13x2.a : UARTCC26XX.oem4f (.text:writeSemCallback)
                  00016296    00000008     app_cop_pem4f.oem4f (.text:xdc_runtime_Text_visitRope__I)
                  0001629e    00000006     drivers_cc13x2.a : AESCCMCC26XX.oem4f (.text:AESCCM_oneStepDecrypt)
                  000162a4    00000006                      : AESCCMCC26XX.oem4f (.text:AESCCM_oneStepEncrypt)
                  000162aa    00000006     main.obj (.text:Main_excHandler)
                  000162b0    00000006     driverlib.lib : cpu.obj (.text:NOROM_CPUdelay)
                  000162b6    00000006     drivers_cc13x2.a : NVSCC26XX.oem4f (.text:NVSCC26XX_control)
                  000162bc    00000006     rf_multiMode_cc13x2.aem4f : RFCC26X2_multiMode.c.cc13x2.ccs.o (.text:RF_clkReqAccess)
                  000162c2    00000006                               : RFCC26X2_multiMode.c.cc13x2.ccs.o (.text:RF_runDirectCmd)
                  000162c8    00000006                               : RFCC26X2_multiMode.c.cc13x2.ccs.o (.text:RF_runImmediateCmd)
                  000162ce    00000006     drivers_cc13x2.a : UARTCC26XX.oem4f (.text:UARTCC26XX_readPolling)
                  000162d4    00000006                      : UARTCC26XX.oem4f (.text:UARTCC26XX_writePolling)
                  000162da    00000006                      : PowerCC26X2.oem4f (.text:delayUs)
                  000162e0    00000006     maclib_secure_cc13x2_zstack_subg.a : mac_hl_patch.obj (.text:macTxBackoffHandler)
                  000162e6    00000006     maclib_osal_tirtos_cc13x2_26x2.a : osal_port.obj (.text:osalHeapAllocFxn)
                  000162ec    00000006                                      : osal_port.obj (.text:osalHeapFreeFxn)
                  000162f2    00000006     rom_sysbios.aem4f : rom_sysbios.obj (.text:ti_sysbios_family_arm_m3_Hwi_setFunc__E)
                  000162f8    00000004     api_mac.obj (.text:ApiMac_enableFH)
                  000162fc    00000004     api_mac.obj (.text:ApiMac_mlmeResetReq)
                  00016300    00000004     dpl_cc13x2.a : PowerCC26X2_tirtos.oem4f (.text:CPUwfi)
                  00016304    00000004                  : ClockP_tirtos.oem4f (.text:ClockP_destruct)
                  00016308    00000004                  : ClockP_tirtos.oem4f (.text:ClockP_getCpuFreq)
                  0001630c    00000004                  : ClockP_tirtos.oem4f (.text:ClockP_getTimeout)
                  00016310    00000004                  : ClockP_tirtos.oem4f (.text:ClockP_setTimeout)
                  00016314    00000004                  : ClockP_tirtos.oem4f (.text:ClockP_start)
                  00016318    00000004                  : ClockP_tirtos.oem4f (.text:ClockP_stop)
                  0001631c    00000004     maclib_secure_cc13x2_zstack_subg.a : fh_ie_patch.obj (.text:FHIEPATCH_extractHie)
                  00016320    00000004                                        : fh_ie_patch.obj (.text:FHIEPATCH_extractPie)
                  00016324    00000004                                        : fh_ie_patch.obj (.text:FHIEPATCH_genHie)
                  00016328    00000004                                        : fh_ie_patch.obj (.text:FHIEPATCH_genPieContent)
                  0001632c    00000004                                        : fh_ie_patch.obj (.text:FHIEPATCH_getHieLen)
                  00016330    00000004                                        : fh_ie_patch.obj (.text:FHIEPATCH_getPieContentLen)
                  00016334    00000004                                        : fh_ie_patch.obj (.text:FHIEPATCH_parseHie)
                  00016338    00000004                                        : fh_ie_patch.obj (.text:FHIEPATCH_parsePie)
                  0001633c    00000004     dpl_cc13x2.a : HwiP_tirtos.oem4f (.text:HwiP_destruct)
                  00016340    00000004                  : HwiP_tirtos.oem4f (.text:HwiP_disable)
                  00016344    00000004                  : HwiP_tirtos.oem4f (.text:HwiP_enableInterrupt)
                  00016348    00000004                  : HwiP_tirtos.oem4f (.text:HwiP_post)
                  0001634c    00000004                  : HwiP_tirtos.oem4f (.text:HwiP_setPriority)
                  00016350    00000004     rf_multiMode_cc13x2.aem4f : rfc.c.cc13x2.ccs.o (.text:NOROM_RFCOverrideUpdate)
                  00016354    00000004                               : RFCC26X2_multiMode.c.cc13x2.ccs.o (.text:RF_defaultExecutionPolicy)
                  00016358    00000004     dpl_cc13x2.a : SemaphoreP_tirtos.oem4f (.text:SemaphoreP_destruct)
                  0001635c    00000004                  : SemaphoreP_tirtos.oem4f (.text:SemaphoreP_post)
                  00016360    00000004                  : SwiP_tirtos.oem4f (.text:SwiP_destruct)
                  00016364    00000004                  : SwiP_tirtos.oem4f (.text:SwiP_disable)
                  00016368    00000004                  : SwiP_tirtos.oem4f (.text:SwiP_getTrigger)
                  0001636c    00000004                  : SwiP_tirtos.oem4f (.text:SwiP_or)
                  00016370    00000004     maclib_osal_tirtos_cc13x2_26x2.a : util_timer.obj (.text:UtilTimer_start)
                  00016374    00000004                                      : util_timer.obj (.text:UtilTimer_stop)
                  00016378    00000004     drivers_cc13x2.a : PowerCC26X2.oem4f (.text:configureRFCoreClocks)
                  0001637c    00000004     maclib_secure_cc13x2_zstack_subg.a : mac_hl_patch.obj (.text:macPibCheckByPatch)
                  00016380    00000004                                        : mac_radio.obj (.text:macRadioComputeLQI)
                  00016384    00000004                                        : mac_radio_tx.obj (.text:macRadioTxBOBoundary)
                  00016388    00000004                                        : mac_hl_patch.obj (.text:macRxBackoffHandler)
                  0001638c    00000004                                        : mac_symbol_timer.obj (.text:macSymbolTimerPwrNotify$31)
                  00016390    00000004     api_mac.obj (.text:mlmeSetFhReq$15)
                  00016394    00000004     drivers_cc13x2.a : PowerCC26X2.oem4f (.text:nopResourceHandler)
                  00016398    00000004     maclib_osal_tirtos_cc13x2_26x2.a : osal_port.obj (.text:osalHeapIsBlockingFxn)
                  0001639c    00000004     rom_sysbios.aem4f : rom_sysbios.obj (.text:ti_sysbios_gates_GateMutexPri_query__E)
                  000163a0    00000004                       : rom_sysbios.obj (.text:ti_sysbios_heaps_HeapCallback_defaultCreate)
                  000163a4    00000004                       : rom_sysbios.obj (.text:ti_sysbios_knl_Clock_isActive__E)
                  000163a8    00000004                       : rom_sysbios.obj (.text:ti_sysbios_knl_Task_getPri__E)
                  000163ac    00000004     app_cop_pem4f.oem4f (.text:xdc_runtime_Startup_reset__I)
                  000163b0    00000004     rom_sysbios.aem4f : rom_sysbios.obj (.text:xdc_runtime_SysCallback_defaultReady)
                  000163b4    00000008     (.tramp.MAC_MlmeFHSetReq.1)
                  000163bc    00000008     (.tramp.ti_sysbios_knl_Swi_destruct.1)
                  000163c4    00000008     (.tramp.ti_sysbios_knl_Semaphore_destruct.1)
                  000163cc    00000008     (.tramp.ti_sysbios_family_arm_m3_Hwi_setPriority__E.1)
                  000163d4    00000008     (.tramp.ti_sysbios_family_arm_m3_Hwi_enableInterrupt__E.1)
                  000163dc    00000008     (.tramp.ti_sysbios_family_arm_m3_Hwi_destruct.1)
                  000163e4    00000008     (.tramp.ti_sysbios_BIOS_getCpuFreq__E.1)
                  000163ec    00000008     (.tramp.ti_sysbios_knl_Clock_destruct.1)
                  000163f4    00000008     (.tramp.MAC_MlmeResetReq.1)
                  000163fc    00000008     (.tramp.MAC_EnableFH.1)
                  00016404    00000008     (.tramp.xdc_runtime_Core_assignParams__I.1)
                  0001640c    00000008     (.tramp.ti_sysbios_knl_Semaphore_delete.1)
                  00016414    00000008     (.tramp.ti_sysbios_knl_Queue_destruct.1)
                  0001641c    00000008     (.tramp.ti_sysbios_knl_Clock_logTick__E.1)
                  00016424    00000008     (.tramp.ti_sysbios_knl_Task_blockI__E.1)
                  0001642c    00000008     (.tramp.ti_sysbios_knl_Swi_post__E.1)
                  00016434    00000008     (.tramp.ti_sysbios_knl_Queue_construct.1)
                  0001643c    00000008     (.tramp.ti_sysbios_BIOS_RtsGateProxy_leave__E.1)
                  00016444    00000008     (.tramp.MAC_MlmeFHGetReq.1)
                  0001644c    00000008     (.tramp.MAC_MlmeFHGetReqSize.1)
                  00016454    00000008     (.tramp.ti_sysbios_knl_Swi_construct.1)
                  0001645c    00000008     (.tramp.ti_sysbios_BIOS_RtsGateProxy_enter__E.1)
                  00016464    00000008     (.tramp.ti_sysbios_family_arm_m3_Hwi_disableFxn__E.1)
                  0001646c    00000008     (.tramp.xdc_runtime_Core_deleteObject__I.1)
                  00016474    00000008     (.tramp.ti_sysbios_knl_Clock_TimerProxy_getCurrentTick__E.1)
                  0001647c    00000008     (.tramp.ti_sysbios_knl_Semaphore_create.1)
                  00016484    00000008     (.tramp.xdc_runtime_Core_createObject__I.1)
                  0001648c    00000008     (.tramp.ti_sysbios_knl_Task_startup__E.1)
                  00016494    00000008     (.tramp.ti_sysbios_knl_Swi_startup__E.1)
                  0001649c    00000008     (.tramp.ti_sysbios_hal_Hwi_startup__E.1)
                  000164a4    00000008     (.tramp.ti_sysbios_family_arm_cc26xx_Timer_startup__E.1)
                  000164ac    00000008     (.tramp.xdc_runtime_System_atexit__E.1)
                  000164b4    00000008     (.tramp.ti_sysbios_BIOS_linkedWithIncorrectBootLibrary__E.1)
                  000164bc    00000008     (.tramp.ti_sysbios_BIOS_setThreadType__E.1)
                  000164c4    00000008     (.tramp.ti_sysbios_knl_Swi_disable__E.1)
                  000164cc    00000008     (.tramp.ti_sysbios_knl_Queue_next__E.1)
                  000164d4    00000008     (.tramp.ti_sysbios_knl_Queue_head__E.1)
                  000164dc    00000008     (.tramp.ti_sysbios_knl_Queue_Object__get__S.1)
                  000164e4    00000008     (.tramp.ti_sysbios_family_arm_m3_Hwi_construct.1)
                  000164ec    00000008     (.tramp.ti_sysbios_family_arm_m3_Hwi_Params__init__S.1)
                  000164f4    00000008     (.tramp.xdc_runtime_Startup_rtsDone__E.1)
                  000164fc    00000008     (.tramp.MAC_MlmePollReq.1)
                  00016504    00000008     (.tramp.MAC_MlmeAssociateRsp.1)
                  0001650c    00000008     (.tramp.ti_sysbios_knl_Clock_construct.1)
                  00016514    00000008     (.tramp.MAC_MlmeWSAsyncReq.1)
                  0001651c    00000008     (.tramp.MAC_MlmeOrphanRsp.1)
                  00016524    00000008     (.tramp.ti_sysbios_knl_Clock_getTicks__E.1)
                  0001652c    00000008     (.tramp.ti_sysbios_knl_Swi_Params__init__S.1)
                  00016534    00000008     (.tramp.xdc_runtime_Error_raiseX__E.1)
                  0001653c    00000008     (.tramp.ti_sysbios_heaps_HeapMem_Module_GateProxy_leave__E.1)
                  00016544    00000008     (.tramp.ti_sysbios_heaps_HeapMem_Module_GateProxy_enter__E.1)
                  0001654c    00000008     (.tramp.ti_sysbios_BIOS_start__E.1)
                  00016554    00000008     (.tramp.xdc_runtime_System_exit__E.1)
                  0001655c    00000008     (.tramp.MAC_MlmeDisassociateReq.1)
                  00016564    00000008     (.tramp.MAC_MlmeAssociateReq.1)
                  0001656c    00000008     (.tramp.ti_sysbios_knl_Task_unblockI__E.1)
                  00016574    00000008     (.tramp.MAC_MlmeSetReq.1)
                  0001657c    00000008     (.tramp.ti_sysbios_knl_Clock_create.1)
                  00016584    00000008     (.tramp.ti_sysbios_knl_Clock_Params__init__S.1)
                  0001658c    00000008     (.tramp.ti_sysbios_knl_Task_self__E.1)
                  00016594    00000008     (.tramp.ti_sysbios_knl_Queue_create.1)
                  0001659c    00000008     (.tramp.MAC_MlmeGetReqSize.1)
                  000165a4    00000008     (.tramp.ti_sysbios_knl_Task_restore__E.1)
                  000165ac    00000008     (.tramp.ti_sysbios_knl_Queue_remove__E.1)
                  000165b4    00000008     (.tramp.macMainSetTaskId.1)
                  000165bc    00000008     (.tramp.ti_sysbios_knl_Task_construct.1)
                  000165c4    00000008     (.tramp.ti_sysbios_knl_Task_Params__init__S.1)
                  000165cc    00000008     (.tramp.ti_sysbios_knl_Semaphore_construct.1)
                  000165d4    00000008     (.tramp.ti_sysbios_knl_Semaphore_Params__init__S.1)
                  000165dc    00000008     (.tramp.ti_sysbios_knl_Clock_start__E.1)
                  000165e4    00000008     (.tramp.ti_sysbios_knl_Swi_restore__E.1)
                  000165ec    00000008     (.tramp.MAC_MlmeStartReq.1)
                  000165f4    00000008     (.tramp.xdc_runtime_System_doPrint__I.1)
                  000165fc    00000008     (.tramp.xdc_runtime_Text_putSite__E.1)
                  00016604    00000008     (.tramp.xdc_runtime_Text_putLab__E.1)
                  0001660c    00000008     (.tramp.MAC_McpsDataReq.1)
                  00016614    00000008     (.tramp.ti_sysbios_knl_Clock_stop__E.1)
                  0001661c    00000008     (.tramp.MAC_RandomByte.1)
                  00016624    00000008     (.tramp.ti_sysbios_knl_Clock_setTimeout__E.1)
                  0001662c    00000008     (.tramp.ti_sysbios_knl_Queue_enqueue__E.1)
                  00016634    00000008     (.tramp.ti_sysbios_knl_Queue_empty__E.1)
                  0001663c    00000008     (.tramp.ti_sysbios_knl_Queue_dequeue__E.1)
                  00016644    00000008     (.tramp.ti_sysbios_knl_Semaphore_post__E.1)

.text.2    0    00056000    00001fa8     
                  00056000    000009b8     mac_user_config.obj (.text:rfSelect)
                  000569b8    00000870     maclib_secure_cc13x2_zstack_subg.a : mac_rx.obj (.text:macRxFrameIsr)
                  00057228    00000008     (.tramp.ti_sysbios_family_arm_m3_Hwi_restoreFxn__E.1)
                  00057230    000007ac     mt_mac.obj (.text:MtMac_commandProcessing)
                  000579dc    00000008     (.tramp.MAC_StartFH.1)
                  000579e4    00000008     (.tramp.macWrapperGetDefaultSourceKey.1)
                  000579ec    00000008     (.tramp.macUpdatePanId.1)
                  000579f4    00000008     (.tramp.MAC_MlmeSetSecurityReq.1)
                  000579fc    00000008     (.tramp.MAC_MlmeGetSecurityReqSize.1)
                  00057a04    00000008     (.tramp.MAC_MlmeGetSecurityReq.1)
                  00057a0c    00000008     (.tramp.MAC_McpsPurgeReq.1)
                  00057a14    00000008     (.tramp.MAC_MlmeGetReq.1)
                  00057a1c    00000008     (.tramp.MAC_MlmeSyncReq.1)
                  00057a24    000004e8     macTask.obj (.text:macTaskFxn$16)
                  00057f0c    00000008     (.tramp.xdc_runtime_System_abort__E.1)
                  00057f14    00000008     (.tramp.MAC_Init.1)
                  00057f1c    00000008     (.tramp.MAC_InitDevice.1)
                  00057f24    00000008     (.tramp.MAC_InitCoord.1)
                  00057f2c    00000008     (.tramp.MAC_InitBeaconDevice.1)
                  00057f34    00000008     (.tramp.MAC_InitBeaconCoord.1)
                  00057f3c    00000008     (.tramp.MAC_InitFH.1)
                  00057f44    00000008     (.tramp.macExecute.1)
                  00057f4c    00000008     (.tramp.ti_sysbios_knl_Clock_delete.1)
                  00057f54    00000008     (.tramp.mac_msg_deallocate.1)
                  00057f5c    00000008     (.tramp.ti_sysbios_knl_Task_enable__E.1)
                  00057f64    00000008     (.tramp.ti_sysbios_knl_Semaphore_pend__E.1)
                  00057f6c    00000008     (.tramp.ti_sysbios_knl_Task_disable__E.1)
                  00057f74    00000008     (.tramp.macCommStatusInd.1)
                  00057f7c    0000002c     mt_mac.obj (.text:MtMac_AssociateCnf)

MODULE SUMMARY

       Module                                      code    ro data   rw data
       ------                                      ----    -------   -------
    .\application\
       zstack_subg_cb.obj                          0       0         408    
    +--+-------------------------------------------+-------+---------+---------+
       Total:                                      0       0         408    
                                                                            
    .\application\coprocessor\
       main.obj                                    652     8         996    
       mcp.obj                                     792     0         76     
    +--+-------------------------------------------+-------+---------+---------+
       Total:                                      1444    8         1072   
                                                                            
    .\application\coprocessor\mt\
       mt_mac.obj                                  5160    0         4      
       mt_sys.obj                                  692     12        8      
       mt_util.obj                                 460     0         48     
       mt.obj                                      340     0         44     
       mt_ext.obj                                  284     0         40     
    +--+-------------------------------------------+-------+---------+---------+
       Total:                                      6936    12        144    
                                                                            
    .\application\launch_pad\
       board_led.obj                               330     0         68     
    +--+-------------------------------------------+-------+---------+---------+
       Total:                                      330     0         68     
                                                                            
    .\application\npi\
       npi_task.obj                                1220    0         904    
       npi_tl.obj                                  284     0         565    
       npi_tl_uart.obj                             312     0         56     
       npi_rxbuf.obj                               84      0         276    
       npi_frame_mt.obj                            116     0         12     
    +--+-------------------------------------------+-------+---------+---------+
       Total:                                      2016    0         1813   
                                                                            
    .\software_stack\ti15_4stack\mac\
       macTask.obj                                 1744    19        2244   
       api_mac.obj                                 1954    0         52     
    +--+-------------------------------------------+-------+---------+---------+
       Total:                                      3698    19        2296   
                                                                            
    .\software_stack\ti15_4stack\mac\mac_settings\
       mac_user_config.obj                         2488    496       0      
       mac_cfg.obj                                 0       992       208    
       mac_settings.obj                            0       0         432    
    +--+-------------------------------------------+-------+---------+---------+
       Total:                                      2488    1488      640    
                                                                            
    .\software_stack\ti15_4stack\nv\
       nvocmp.obj                                  6372    0         120    
       crc.obj                                     32      256       0      
    +--+-------------------------------------------+-------+---------+---------+
       Total:                                      6404    256       120    
                                                                            
    .\software_stack\ti15_4stack\radio_configuration\radio_config\
       ti_radio_config.obj                         0       1216      1112   
    +--+-------------------------------------------+-------+---------+---------+
       Total:                                      0       1216      1112   
                                                                            
    .\syscfg\
       ti_drivers_config.obj                       260     188       33264  
       ti_devices_config.obj                       0       88        0      
    +--+-------------------------------------------+-------+---------+---------+
       Total:                                      260     276       33264  
                                                                            
    C:\Windows\TEMP\
       {EE1F8FBF-28D5-498F-9A6E-18A27E44658F}      0       0         1660   
    +--+-------------------------------------------+-------+---------+---------+
       Total:                                      0       0         1660   
                                                                            
    C:\ti\.ccs_bld_tmp\coprocessor_CC1352R1_LAUNCHXL_tirtos_ccs\coprocessor_CC1352R1_LAUNCHXL_tirtos_ccs\Release\configPkg\package\cfg\
       app_cop_pem4f.oem4f                         994     1473      1798   
    +--+-------------------------------------------+-------+---------+---------+
       Total:                                      994     1473      1798   
                                                                            
    C:/.conan/061577/1/kernel/tirtos/packages/ti/dpl/lib/ccs/m4f/dpl_cc13x2.a
       PowerCC26X2_tirtos.oem4f                    260     0         8      
       ClockP_tirtos.oem4f                         202     0         0      
       SwiP_tirtos.oem4f                           140     0         0      
       HwiP_tirtos.oem4f                           130     0         0      
       SemaphoreP_tirtos.oem4f                     126     0         0      
    +--+-------------------------------------------+-------+---------+---------+
       Total:                                      858     0         8      
                                                                            
    C:/.conan/061577/1/source/ti/devices/cc13x2_cc26x2/driverlib/bin/ccs/driverlib.lib
       osc.obj                                     400     0         36     
       setup.obj                                   436     0         0      
       sys_ctrl.obj                                396     0         0      
       chipinfo.obj                                228     0         0      
       prcm.obj                                    160     0         0      
       flash.obj                                   56      0         0      
       cpu.obj                                     30      0         0      
       aux_sysif.obj                               0       8         0      
    +--+-------------------------------------------+-------+---------+---------+
       Total:                                      1706    8         36     
                                                                            
    C:/.conan/061577/1/source/ti/drivers/lib/ccs/m4f/drivers_cc13x2.a
       UARTCC26XX.oem4f                            2760    108       0      
       PowerCC26X2.oem4f                           2196    84        368    
       PINCC26XX.oem4f                             1430    0         328    
       PowerCC26X2_calibrateRCOSC.oem4f            1400    0         0      
       TRNGCC26XX.oem4f                            954     0         98     
       NVSCC26XX.oem4f                             986     40        12     
       AESCCMCC26XX.oem4f                          756     0         1      
       Random.oem4f                                176     140       20     
       CryptoResourceCC26XX.oem4f                  98      0         190    
       UART.oem4f                                  186     36        1      
       List.oem4f                                  210     0         0      
       StructRingBuf.oem4f                         194     0         0      
       NVS.oem4f                                   160     4         1      
       RingBuf.oem4f                               152     0         0      
       AESCCM.oem4f                                40      16        0      
       CryptoUtils.oem4f                           34      0         0      
       CryptoKeyPlaintextCC26XX.oem4f              28      0         0      
       TRNG.oem4f                                  0       16        0      
    +--+-------------------------------------------+-------+---------+---------+
       Total:                                      11760   444       1019   
                                                                            
    C:/.conan/061577/1/source/ti/drivers/rf/lib/rf_multiMode_cc13x2.aem4f
       RFCC26X2_multiMode.c.cc13x2.ccs.o           10164   32        1301   
       rf_patch_cpe_prop.c.cc13x2.ccs.o            108     496       1      
       rf_patch_cpe_ieee_802_15_4.c.cc13x2.ccs.o   74      360       1      
       rfc.c.cc13x2.ccs.o                          302     0         0      
    +--+-------------------------------------------+-------+---------+---------+
       Total:                                      10648   888       1303   
                                                                            
    C:/.conan/061577/1/source/ti/ti154stack/library/tirtos/ccs/bin/maclib_osal_tirtos_cc13x2_26x2.a
       osal_port.obj                               1552    0         400    
       mac_util.obj                                112     0         0      
       util_timer.obj                              104     0         0      
       osal_port_timers.obj                        0       0         16     
    +--+-------------------------------------------+-------+---------+---------+
       Total:                                      1768    0         416    
                                                                            
    C:/.conan/061577/1/source/ti/ti154stack/library/tirtos/ccs/bin/maclib_secure_cc13x2_zstack_subg.a
       mac_hl_patch.obj                            11482   0         12     
       mac_radio_tx.obj                            4336    0         20     
       mac.obj                                     3648    0         183    
       mac_rx.obj                                  3540    8         40     
       mac_tx.obj                                  2932    0         37     
       mac_radio.obj                               2612    0         312    
       mac_timer.obj                               1532    0         0      
       hmac_rom_init.obj                           0       1384      0      
       hmac_global.obj                             0       817       264    
       mac_pwr.obj                                 918     0         0      
       mac_ebeacon.obj                             868     0         0      
       mac_duty_cycle.obj                          568     0         156    
       mac_autopend.obj                            622     0         4      
       fh_rom_init.obj                             0       600       0      
       mac_rx_onoff.obj                            596     0         0      
       mac_symbol_timer.obj                        528     0         40     
       mac_low_level.obj                           464     0         0      
       mac_mcu.obj                                 390     0         0      
       fh_global.obj                               0       258       108    
       lmac_rom_init.obj                           0       204       0      
       saddr.obj                                   112     0         0      
       icall_osal_rom_init.obj                     0       108       0      
       mac_sleep.obj                               88      0         1      
       fh_ie_patch.obj                             42      0         0      
       rom_init_154.obj                            0       0         16     
       lmac_global.obj                             0       0         4      
    +--+-------------------------------------------+-------+---------+---------+
       Total:                                      35278   3379      1197   
                                                                            
    C:\.conan\061577\1\kernel\tirtos\packages\ti\targets\arm\rtsarm\lib\auto_init.aem4f
       auto_init.oem4f                             160     0         0      
    +--+-------------------------------------------+-------+---------+---------+
       Total:                                      160     0         0      
                                                                            
    C:\.conan\061577\1\kernel\tirtos\packages\ti\targets\arm\rtsarm\lib\boot.aem4f
       boot.oem4f                                  88      0         0      
    +--+-------------------------------------------+-------+---------+---------+
       Total:                                      88      0         0      
                                                                            
    C:\ti\.ccs_bld_tmp\coprocessor_CC1352R1_LAUNCHXL_tirtos_ccs\coprocessor_CC1352R1_LAUNCHXL_tirtos_ccs\src\sysbios\rom_sysbios.aem4f
       rom_sysbios.obj                             1821    0         0      
    +--+-------------------------------------------+-------+---------+---------+
       Total:                                      1821    0         0      
                                                                            
    C:\ti\ccs101100002\ccs\tools\compiler\ti-cgt-arm_20.2.1.LTS\lib\rtsv7M4_T_le_v4SPD16_eabi.lib
       memcpy_t2.asm.obj                           156     0         0      
       ull_div_t2.asm.obj                          150     0         0      
       memset_t2.asm.obj                           122     0         0      
       ll_div_t2.asm.obj                           110     0         0      
       copy_decompress_lzss.c.obj                  104     0         0      
       cpy_tbl.c.obj                               76      0         0      
       u_divt2.asm.obj                             64      0         0      
       memcmp.c.obj                                36      0         0      
       _lock.c.obj                                 26      0         8      
       args_main.c.obj                             24      0         0      
       ll_mul_t2.asm.obj                           24      0         0      
       copy_decompress_none.c.obj                  14      0         0      
       copy_zero_init.c.obj                        12      0         0      
       stkdepth_vars.c.obj                         0       0         4      
       div0.asm.obj                                2       0         0      
    +--+-------------------------------------------+-------+---------+---------+
       Total:                                      920     0         12     
                                                                            
       Stack:                                      0       0         1376   
       Linker Generated:                           856     1306      0      
    +--+-------------------------------------------+-------+---------+---------+
       Grand Total:                                90433   10773     49762  


LINKER GENERATED COPY TABLES

__TI_cinit_table @ 00016b40 records: 6, size/record: 8, table size: 48
	.data: load addr=00016650, load size=000004b6 bytes, run addr=20000120, run size=00002c74 bytes, compression=lzss
	.bss: load addr=00016b18, load size=00000008 bytes, run addr=20002d98, run size=00000f9a bytes, compression=zero_init
	.data:RAM_MAC_BASE_ADDR: load addr=00016b20, load size=00000008 bytes, run addr=2000010c, run size=00000010 bytes, compression=zero_init
	.data:xdcRomConstPtr: load addr=00016b28, load size=00000008 bytes, run addr=20000100, run size=00000004 bytes, compression=lzss
	.data:xdcRomExternFuncPtr: load addr=00016b30, load size=00000008 bytes, run addr=20000104, run size=00000004 bytes, compression=lzss
	.data:xdcRomStatePtr: load addr=00016b38, load size=00000008 bytes, run addr=20000108, run size=00000004 bytes, compression=lzss


LINKER GENERATED HANDLER TABLE

__TI_handler_table @ 00016b08 records: 3, size/record: 4, table size: 12
	index: 0, handler: __TI_decompress_lzss
	index: 1, handler: __TI_decompress_none
	index: 2, handler: __TI_zero_init


FAR CALL TRAMPOLINES

callee name               trampoline name
   callee addr  tramp addr   call addr  call info
--------------  -----------  ---------  ----------------
MAC_MlmeFHSetReq          $Tramp$TT$L$PI$$MAC_MlmeFHSetReq
   10039d21     000163b4     00016390   api_mac.obj (.text:mlmeSetFhReq$15)
ti_sysbios_knl_Swi_destruct  $Tramp$TT$L$PI$$ti_sysbios_knl_Swi_destruct
   1002e8bd     000163bc     00016360   dpl_cc13x2.a : SwiP_tirtos.oem4f (.text:SwiP_destruct)
ti_sysbios_knl_Semaphore_destruct  $Tramp$TT$L$PI$$ti_sysbios_knl_Semaphore_destruct
   1002e6fd     000163c4     00016358   dpl_cc13x2.a : SemaphoreP_tirtos.oem4f (.text:SemaphoreP_destruct)
ti_sysbios_family_arm_m3_Hwi_setPriority__E  $Tramp$TT$L$PI$$ti_sysbios_family_arm_m3_Hwi_setPriority__E
   1002e919     000163cc     0001634c   dpl_cc13x2.a : HwiP_tirtos.oem4f (.text:HwiP_setPriority)
ti_sysbios_family_arm_m3_Hwi_enableInterrupt__E  $Tramp$TT$L$PI$$ti_sysbios_family_arm_m3_Hwi_enableInterrupt__E
   1002d91d     000163d4     00016344   dpl_cc13x2.a : HwiP_tirtos.oem4f (.text:HwiP_enableInterrupt)
ti_sysbios_family_arm_m3_Hwi_destruct  $Tramp$TT$L$PI$$ti_sysbios_family_arm_m3_Hwi_destruct
   1002e475     000163dc     0001633c   dpl_cc13x2.a : HwiP_tirtos.oem4f (.text:HwiP_destruct)
ti_sysbios_BIOS_getCpuFreq__E  $Tramp$TT$L$PI$$ti_sysbios_BIOS_getCpuFreq__E
   1002e9fd     000163e4     00016308   dpl_cc13x2.a : ClockP_tirtos.oem4f (.text:ClockP_getCpuFreq)
ti_sysbios_knl_Clock_destruct  $Tramp$TT$L$PI$$ti_sysbios_knl_Clock_destruct
   1002e649     000163ec     00016304   dpl_cc13x2.a : ClockP_tirtos.oem4f (.text:ClockP_destruct)
MAC_MlmeResetReq          $Tramp$TT$L$PI$$MAC_MlmeResetReq
   100391c9     000163f4     000162fc   api_mac.obj (.text:ApiMac_mlmeResetReq)
MAC_EnableFH              $Tramp$TT$L$PI$$MAC_EnableFH
   10039cbd     000163fc     000162f8   api_mac.obj (.text:ApiMac_enableFH)
xdc_runtime_Core_assignParams__I  $Tramp$TT$L$PI$$xdc_runtime_Core_assignParams__I
   1002f4c9     00016404     000161bc   app_cop_pem4f.oem4f (.text:ti_sysbios_gates_GateMutexPri_Params__init__S)
ti_sysbios_knl_Semaphore_delete  $Tramp$TT$L$PI$$ti_sysbios_knl_Semaphore_delete
   1002ecdb     0001640c     000160fe   dpl_cc13x2.a : SemaphoreP_tirtos.oem4f (.text:SemaphoreP_delete)
ti_sysbios_knl_Queue_destruct  $Tramp$TT$L$PI$$ti_sysbios_knl_Queue_destruct
   1002e89d     00016414     00015f72   rom_sysbios.aem4f : rom_sysbios.obj (.text:ti_sysbios_gates_GateMutexPri_Instance_finalize__E)
ti_sysbios_knl_Clock_logTick__E  $Tramp$TT$L$PI$$ti_sysbios_knl_Clock_logTick__E
   1002dbd7     0001641c     00015e72   app_cop_pem4f.oem4f (.text:ti_sysbios_knl_Clock_doTick__I)
ti_sysbios_knl_Task_blockI__E  $Tramp$TT$L$PI$$ti_sysbios_knl_Task_blockI__E
   1002d7b1     00016424     00015c70   rom_sysbios.aem4f : rom_sysbios.obj (.text:ti_sysbios_knl_Task_block__E)
ti_sysbios_knl_Swi_post__E  $Tramp$TT$L$PI$$ti_sysbios_knl_Swi_post__E
   1002d891     0001642c     00015bc0   rom_sysbios.aem4f : rom_sysbios.obj (.text:ti_sysbios_knl_Swi_or__E)
                             00015e7a   app_cop_pem4f.oem4f (.text:ti_sysbios_knl_Clock_doTick__I)
ti_sysbios_knl_Queue_construct  $Tramp$TT$L$PI$$ti_sysbios_knl_Queue_construct
   1002dee5     00016434     00015b8c   rom_sysbios.aem4f : rom_sysbios.obj (.text:ti_sysbios_gates_GateMutexPri_Instance_init__E)
ti_sysbios_BIOS_RtsGateProxy_leave__E  $Tramp$TT$L$PI$$ti_sysbios_BIOS_RtsGateProxy_leave__E
   1002ec7b     0001643c     00015b72   app_cop_pem4f.oem4f (.text:ti_sysbios_BIOS_rtsUnlock__I)
MAC_MlmeFHGetReq          $Tramp$TT$L$PI$$MAC_MlmeFHGetReq
   10039ce1     00016444     000158be   api_mac.obj (.text:mlmeGetFhReq$15)
MAC_MlmeFHGetReqSize      $Tramp$TT$L$PI$$MAC_MlmeFHGetReqSize
   10039d01     0001644c     000158b4   api_mac.obj (.text:mlmeGetFhReq$15)
ti_sysbios_knl_Swi_construct  $Tramp$TT$L$PI$$ti_sysbios_knl_Swi_construct
   1002d719     00016454     000157de   rom_sysbios.aem4f : rom_sysbios.obj (.text:ti_sysbios_knl_Swi_construct2__E)
ti_sysbios_BIOS_RtsGateProxy_enter__E  $Tramp$TT$L$PI$$ti_sysbios_BIOS_RtsGateProxy_enter__E
   1002ec77     0001645c     000153f6   app_cop_pem4f.oem4f (.text:ti_sysbios_BIOS_rtsLock__I)
ti_sysbios_family_arm_m3_Hwi_disableFxn__E  $Tramp$TT$L$PI$$ti_sysbios_family_arm_m3_Hwi_disableFxn__E
   1002eb55     00016464     00015118   dpl_cc13x2.a : HwiP_tirtos.oem4f (.text:HwiP_setFunc)
                             00016340                : HwiP_tirtos.oem4f (.text:HwiP_disable)
xdc_runtime_Core_deleteObject__I  $Tramp$TT$L$PI$$xdc_runtime_Core_deleteObject__I
   1002f367     0001646c     00015032   app_cop_pem4f.oem4f (.text:ti_sysbios_gates_GateMutexPri_Object__delete__S)
                             00015056   app_cop_pem4f.oem4f (.text:ti_sysbios_heaps_HeapCallback_Object__delete__S)
ti_sysbios_knl_Clock_TimerProxy_getCurrentTick__E  $Tramp$TT$L$PI$$ti_sysbios_knl_Clock_TimerProxy_getCurrentTick__E
   1002eac5     00016474     00014af2   rom_sysbios.aem4f : rom_sysbios.obj (.text:ti_sysbios_knl_Clock_getTicksUntilInterrupt__E)
ti_sysbios_knl_Semaphore_create  $Tramp$TT$L$PI$$ti_sysbios_knl_Semaphore_create
   1002dc49     0001647c     00014898   dpl_cc13x2.a : SemaphoreP_tirtos.oem4f (.text:SemaphoreP_createBinary)
xdc_runtime_Core_createObject__I  $Tramp$TT$L$PI$$xdc_runtime_Core_createObject__I
   1002f2f9     00016484     00014664   app_cop_pem4f.oem4f (.text:ti_sysbios_gates_GateMutexPri_Object__create__S)
                             00014694   app_cop_pem4f.oem4f (.text:ti_sysbios_gates_GateMutexPri_create)
                             000146c4   app_cop_pem4f.oem4f (.text:ti_sysbios_heaps_HeapCallback_Object__create__S)
ti_sysbios_knl_Task_startup__E  $Tramp$TT$L$PI$$ti_sysbios_knl_Task_startup__E
   1002eceb     0001648c     00014614   app_cop_pem4f.oem4f (.text:ti_sysbios_BIOS_startFunc__I)
ti_sysbios_knl_Swi_startup__E  $Tramp$TT$L$PI$$ti_sysbios_knl_Swi_startup__E
   1002ec6b     00016494     00014610   app_cop_pem4f.oem4f (.text:ti_sysbios_BIOS_startFunc__I)
ti_sysbios_hal_Hwi_startup__E  $Tramp$TT$L$PI$$ti_sysbios_hal_Hwi_startup__E
   1002ec31     0001649c     0001460c   app_cop_pem4f.oem4f (.text:ti_sysbios_BIOS_startFunc__I)
ti_sysbios_family_arm_cc26xx_Timer_startup__E  $Tramp$TT$L$PI$$ti_sysbios_family_arm_cc26xx_Timer_startup__E
   1002dcf1     000164a4     00014608   app_cop_pem4f.oem4f (.text:ti_sysbios_BIOS_startFunc__I)
xdc_runtime_System_atexit__E  $Tramp$TT$L$PI$$xdc_runtime_System_atexit__E
   1002f559     000164ac     00014600   app_cop_pem4f.oem4f (.text:ti_sysbios_BIOS_startFunc__I)
ti_sysbios_BIOS_linkedWithIncorrectBootLibrary__E  $Tramp$TT$L$PI$$ti_sysbios_BIOS_linkedWithIncorrectBootLibrary__E
   1002d01b     000164b4     000145fa   app_cop_pem4f.oem4f (.text:ti_sysbios_BIOS_startFunc__I)
ti_sysbios_BIOS_setThreadType__E  $Tramp$TT$L$PI$$ti_sysbios_BIOS_setThreadType__E
   1002ea11     000164bc     000145cc   app_cop_pem4f.oem4f (.text:ti_sysbios_BIOS_atExitFunc__I)
                             00015c58   app_cop_pem4f.oem4f (.text:ti_sysbios_BIOS_exitFunc__I)
ti_sysbios_knl_Swi_disable__E  $Tramp$TT$L$PI$$ti_sysbios_knl_Swi_disable__E
   1002ea25     000164c4     000145c2   app_cop_pem4f.oem4f (.text:ti_sysbios_BIOS_atExitFunc__I)
                             000155ea   dpl_cc13x2.a : PowerCC26X2_tirtos.oem4f (.text:PowerCC26XX_schedulerDisable)
                             00016364                : SwiP_tirtos.oem4f (.text:SwiP_disable)
ti_sysbios_knl_Queue_next__E  $Tramp$TT$L$PI$$ti_sysbios_knl_Queue_next__E
   1002ecd7     000164cc     0001432c   rom_sysbios.aem4f : rom_sysbios.obj (.text:ti_sysbios_gates_GateMutexPri_insertPri__I)
ti_sysbios_knl_Queue_head__E  $Tramp$TT$L$PI$$ti_sysbios_knl_Queue_head__E
   1002ecd3     000164d4     00014322   rom_sysbios.aem4f : rom_sysbios.obj (.text:ti_sysbios_gates_GateMutexPri_insertPri__I)
ti_sysbios_knl_Queue_Object__get__S  $Tramp$TT$L$PI$$ti_sysbios_knl_Queue_Object__get__S
   1002e87d     000164dc     000142da   rom_sysbios.aem4f : rom_sysbios.obj (.text:ti_sysbios_knl_Swi_setPri__E)
ti_sysbios_family_arm_m3_Hwi_construct  $Tramp$TT$L$PI$$ti_sysbios_family_arm_m3_Hwi_construct
   1002d421     000164e4     00013c9e   rom_sysbios.aem4f : rom_sysbios.obj (.text:ti_sysbios_family_arm_m3_Hwi_construct2__E)
ti_sysbios_family_arm_m3_Hwi_Params__init__S  $Tramp$TT$L$PI$$ti_sysbios_family_arm_m3_Hwi_Params__init__S
   1002eb49     000164ec     00013950   dpl_cc13x2.a : HwiP_tirtos.oem4f (.text:HwiP_construct)
xdc_runtime_Startup_rtsDone__E  $Tramp$TT$L$PI$$xdc_runtime_Startup_rtsDone__E
   1002f8e5     000164f4     000138f6   rom_sysbios.aem4f : rom_sysbios.obj (.text:ti_sysbios_heaps_HeapCallback_Module_startup__E)
                             000145f2   app_cop_pem4f.oem4f (.text:ti_sysbios_BIOS_startFunc__I)
MAC_MlmePollReq           $Tramp$TT$L$PI$$MAC_MlmePollReq
   10037ebd     000164fc     0001300c   mt_mac.obj (.text:macPollReq$5)
MAC_MlmeAssociateRsp      $Tramp$TT$L$PI$$MAC_MlmeAssociateRsp
   10036471     00016504     00012f7c   mt_mac.obj (.text:macAssociateRsp$5)
ti_sysbios_knl_Clock_construct  $Tramp$TT$L$PI$$ti_sysbios_knl_Clock_construct
   1002dd8d     0001650c     00012eee   maclib_osal_tirtos_cc13x2_26x2.a : util_timer.obj (.text:UtilTimer_construct)
                             000134ea   dpl_cc13x2.a : ClockP_tirtos.oem4f (.text:ClockP_construct)
MAC_MlmeWSAsyncReq        $Tramp$TT$L$PI$$MAC_MlmeWSAsyncReq
   10039df5     00016514     00012caa   mt_mac.obj (.text:macAsyncReq$5)
MAC_MlmeOrphanRsp         $Tramp$TT$L$PI$$MAC_MlmeOrphanRsp
   1003648d     0001651c     00012836   mt_mac.obj (.text:macOrphanRsp$5)
ti_sysbios_knl_Clock_getTicks__E  $Tramp$TT$L$PI$$ti_sysbios_knl_Clock_getTicks__E
   1002dc11     00016524     0001251c   maclib_secure_cc13x2_zstack_subg.a : mac_duty_cycle.obj (.text:macDutyCycleUpdateTransmission)
                             00012f90                                      : mac_duty_cycle.obj (.text:macDutyCycleCheck)
                             000146f4   rom_sysbios.aem4f : rom_sysbios.obj (.text:ti_sysbios_knl_Clock_getTimeout__E)
                             0001492a   maclib_secure_cc13x2_zstack_subg.a : mac_duty_cycle.obj (.text:macDutyCycleTimerCB$33)
ti_sysbios_knl_Swi_Params__init__S  $Tramp$TT$L$PI$$ti_sysbios_knl_Swi_Params__init__S
   1002ebf1     0001652c     0001249a   dpl_cc13x2.a : SwiP_tirtos.oem4f (.text:SwiP_construct)
xdc_runtime_Error_raiseX__E  $Tramp$TT$L$PI$$xdc_runtime_Error_raiseX__E
   1002f739     00016534     000121b4   rom_sysbios.aem4f : rom_sysbios.obj (.text:ti_sysbios_heaps_HeapMem_alloc__E)
ti_sysbios_heaps_HeapMem_Module_GateProxy_leave__E  $Tramp$TT$L$PI$$ti_sysbios_heaps_HeapMem_Module_GateProxy_leave__E
   1002ecaf     0001653c     0001219a   rom_sysbios.aem4f : rom_sysbios.obj (.text:ti_sysbios_heaps_HeapMem_alloc__E)
ti_sysbios_heaps_HeapMem_Module_GateProxy_enter__E  $Tramp$TT$L$PI$$ti_sysbios_heaps_HeapMem_Module_GateProxy_enter__E
   1002ecab     00016544     00012184   rom_sysbios.aem4f : rom_sysbios.obj (.text:ti_sysbios_heaps_HeapMem_alloc__E)
ti_sysbios_BIOS_start__E  $Tramp$TT$L$PI$$ti_sysbios_BIOS_start__E
   1002eaa5     0001654c     0001215e   main.obj (.text:main)
xdc_runtime_System_exit__E  $Tramp$TT$L$PI$$xdc_runtime_System_exit__E
   1002f7b1     00016554     00012054   boot.aem4f : boot.oem4f (.text)
                             00015c5e   app_cop_pem4f.oem4f (.text:ti_sysbios_BIOS_exitFunc__I)
MAC_MlmeDisassociateReq   $Tramp$TT$L$PI$$MAC_MlmeDisassociateReq
   10039dc1     0001655c     00011c80   mt_mac.obj (.text:macDisassociateReq$5)
MAC_MlmeAssociateReq      $Tramp$TT$L$PI$$MAC_MlmeAssociateReq
   10037ea5     00016564     00010bb6   mt_mac.obj (.text:macAssociateReq$5)
ti_sysbios_knl_Task_unblockI__E  $Tramp$TT$L$PI$$ti_sysbios_knl_Task_unblockI__E
   1002dcb9     0001656c     000107bc   rom_sysbios.aem4f : rom_sysbios.obj (.text:ti_sysbios_gates_GateMutexPri_leave__E)
MAC_MlmeSetReq            $Tramp$TT$L$PI$$MAC_MlmeSetReq
   10039ec5     00016574     0000f206   api_mac.obj (.text:ApiMac_mlmeSetReqArray)
ti_sysbios_knl_Clock_create  $Tramp$TT$L$PI$$ti_sysbios_knl_Clock_create
   1002db25     0001657c     0000ef78   maclib_osal_tirtos_cc13x2_26x2.a : osal_port.obj (.text:OsalPort_setTimer)
                             00013528   dpl_cc13x2.a : ClockP_tirtos.oem4f (.text:ClockP_create)
ti_sysbios_knl_Clock_Params__init__S  $Tramp$TT$L$PI$$ti_sysbios_knl_Clock_Params__init__S
   1002eb9d     00016584     0000ef64   maclib_osal_tirtos_cc13x2_26x2.a : osal_port.obj (.text:OsalPort_setTimer)
                             00012ec8                                    : util_timer.obj (.text:UtilTimer_construct)
                             000134d0   dpl_cc13x2.a : ClockP_tirtos.oem4f (.text:ClockP_construct)
                             0001350e                : ClockP_tirtos.oem4f (.text:ClockP_create)
ti_sysbios_knl_Task_self__E  $Tramp$TT$L$PI$$ti_sysbios_knl_Task_self__E
   1002eaf5     0001658c     0000ee62   npi_task.obj (.text:NPITask_inititializeTask$11)
                             0000f17a   rom_sysbios.aem4f : rom_sysbios.obj (.text:ti_sysbios_gates_GateMutexPri_enter__E)
                             0000fb9a   api_mac.obj (.text:ApiMac_init)
                             0001076e   rom_sysbios.aem4f : rom_sysbios.obj (.text:ti_sysbios_gates_GateMutexPri_leave__E)
                             0001130a   maclib_osal_tirtos_cc13x2_26x2.a : osal_port.obj (.text:OsalPort_clearEvent)
ti_sysbios_knl_Queue_create  $Tramp$TT$L$PI$$ti_sysbios_knl_Queue_create
   1002df15     00016594     0000ee36   npi_task.obj (.text:NPITask_inititializeTask$11)
                             0000ee40   npi_task.obj (.text:NPITask_inititializeTask$11)
MAC_MlmeGetReqSize        $Tramp$TT$L$PI$$MAC_MlmeGetReqSize
   1003a275     0001659c     0000edac   api_mac.obj (.text:ApiMac_mlmeGetReqArrayLen)
ti_sysbios_knl_Task_restore__E  $Tramp$TT$L$PI$$ti_sysbios_knl_Task_restore__E
   1002df45     000165a4     0000dd0a   rom_sysbios.aem4f : rom_sysbios.obj (.text:ti_sysbios_knl_Task_setPri__E)
                             0000f19e                     : rom_sysbios.obj (.text:ti_sysbios_gates_GateMutexPri_enter__E)
                             0000f1ac                     : rom_sysbios.obj (.text:ti_sysbios_gates_GateMutexPri_enter__E)
                             0000f1e2                     : rom_sysbios.obj (.text:ti_sysbios_gates_GateMutexPri_enter__E)
                             000107cc                     : rom_sysbios.obj (.text:ti_sysbios_gates_GateMutexPri_leave__E)
                             0001560a   dpl_cc13x2.a : PowerCC26X2_tirtos.oem4f (.text:PowerCC26XX_schedulerRestore)
                             00015c1c   maclib_osal_tirtos_cc13x2_26x2.a : osal_port.obj (.text:OsalPort_leaveCS)
ti_sysbios_knl_Queue_remove__E  $Tramp$TT$L$PI$$ti_sysbios_knl_Queue_remove__E
   1002eb2f     000165ac     0000dcbe   rom_sysbios.aem4f : rom_sysbios.obj (.text:ti_sysbios_knl_Task_setPri__E)
macMainSetTaskId          $Tramp$TT$L$PI$$macMainSetTaskId
   100388e1     000165b4     0000d546   macTask.obj (.text:macTaskInit)
ti_sysbios_knl_Task_construct  $Tramp$TT$L$PI$$ti_sysbios_knl_Task_construct
   1002d5d9     000165bc     0000d520   macTask.obj (.text:macTaskInit)
                             0001215a   main.obj (.text:main)
                             0001230c   npi_task.obj (.text:NPITask_createTask)
ti_sysbios_knl_Task_Params__init__S  $Tramp$TT$L$PI$$ti_sysbios_knl_Task_Params__init__S
   1002ec09     000165c4     0000d4fa   macTask.obj (.text:macTaskInit)
                             0001213c   main.obj (.text:main)
                             000122f2   npi_task.obj (.text:NPITask_createTask)
ti_sysbios_knl_Semaphore_construct  $Tramp$TT$L$PI$$ti_sysbios_knl_Semaphore_construct
   1002ddc1     000165cc     0000d4e8   macTask.obj (.text:macTaskInit)
                             0000ee5c   npi_task.obj (.text:NPITask_inititializeTask$11)
                             0000fb94   api_mac.obj (.text:ApiMac_init)
                             0001486e   dpl_cc13x2.a : SemaphoreP_tirtos.oem4f (.text:SemaphoreP_constructBinary)
ti_sysbios_knl_Semaphore_Params__init__S  $Tramp$TT$L$PI$$ti_sysbios_knl_Semaphore_Params__init__S
   1002ebe5     000165d4     0000d4d2   macTask.obj (.text:macTaskInit)
                             0000ee4e   npi_task.obj (.text:NPITask_inititializeTask$11)
                             0000fb7e   api_mac.obj (.text:ApiMac_init)
                             0001485e   dpl_cc13x2.a : SemaphoreP_tirtos.oem4f (.text:SemaphoreP_constructBinary)
                             00014888                : SemaphoreP_tirtos.oem4f (.text:SemaphoreP_createBinary)
ti_sysbios_knl_Clock_start__E  $Tramp$TT$L$PI$$ti_sysbios_knl_Clock_start__E
   1002e9e7     000165dc     0000c5fa   dpl_cc13x2.a : PowerCC26X2_tirtos.oem4f (.text:PowerCC26XX_standbyPolicy)
                             0000efb2   maclib_osal_tirtos_cc13x2_26x2.a : osal_port.obj (.text:OsalPort_setTimer)
                             00016314   dpl_cc13x2.a : ClockP_tirtos.oem4f (.text:ClockP_start)
                             00016370   maclib_osal_tirtos_cc13x2_26x2.a : util_timer.obj (.text:UtilTimer_start)
ti_sysbios_knl_Swi_restore__E  $Tramp$TT$L$PI$$ti_sysbios_knl_Swi_restore__E
   1002db61     000165e4     0000bda4   rf_multiMode_cc13x2.aem4f : RFCC26X2_multiMode.c.cc13x2.ccs.o (.text:RF_pendCmd)
                             0000bdd6                             : RFCC26X2_multiMode.c.cc13x2.ccs.o (.text:RF_pendCmd)
                             0000be28                             : RFCC26X2_multiMode.c.cc13x2.ccs.o (.text:RF_pendCmd)
                             00015602   dpl_cc13x2.a : PowerCC26X2_tirtos.oem4f (.text:PowerCC26XX_schedulerRestore)
MAC_MlmeStartReq          $Tramp$TT$L$PI$$MAC_MlmeStartReq
   100364e1     000165ec     0000bbac   mt_mac.obj (.text:macStartReq$5)
xdc_runtime_System_doPrint__I  $Tramp$TT$L$PI$$xdc_runtime_System_doPrint__I
   1002ecf1     000165f4     0000af6e   app_cop_pem4f.oem4f (.text:xdc_runtime_System_printfExtend__I)
xdc_runtime_Text_putSite__E  $Tramp$TT$L$PI$$xdc_runtime_Text_putSite__E
   1002f15d     000165fc     0000af3c   app_cop_pem4f.oem4f (.text:xdc_runtime_System_printfExtend__I)
xdc_runtime_Text_putLab__E  $Tramp$TT$L$PI$$xdc_runtime_Text_putLab__E
   1002f3c5     00016604     0000af02   app_cop_pem4f.oem4f (.text:xdc_runtime_System_printfExtend__I)
MAC_McpsDataReq           $Tramp$TT$L$PI$$MAC_McpsDataReq
   10036729     0001660c     0000aeb4   mt_mac.obj (.text:macDataReq$5)
ti_sysbios_knl_Clock_stop__E  $Tramp$TT$L$PI$$ti_sysbios_knl_Clock_stop__E
   1002e2c5     00016614     0000ac3a   maclib_secure_cc13x2_zstack_subg.a : mac_hl_patch.obj (.text:macEdScanISR)
                             0000c60e   dpl_cc13x2.a : PowerCC26X2_tirtos.oem4f (.text:PowerCC26XX_standbyPolicy)
                             0000ef9e   maclib_osal_tirtos_cc13x2_26x2.a : osal_port.obj (.text:OsalPort_setTimer)
                             000160ce                                    : osal_port.obj (.text:OsalPort_stopTimer)
                             00016318   dpl_cc13x2.a : ClockP_tirtos.oem4f (.text:ClockP_stop)
                             00016374   maclib_osal_tirtos_cc13x2_26x2.a : util_timer.obj (.text:UtilTimer_stop)
MAC_RandomByte            $Tramp$TT$L$PI$$MAC_RandomByte
   10039e55     0001661c     00008978   mt_util.obj (.text:MtUtil_commandProcessing)
                             00008980   mt_util.obj (.text:MtUtil_commandProcessing)
ti_sysbios_knl_Clock_setTimeout__E  $Tramp$TT$L$PI$$ti_sysbios_knl_Clock_setTimeout__E
   1002ecc3     00016624     000088f6   mt_util.obj (.text:MtUtil_commandProcessing)
                             0000c5f4   dpl_cc13x2.a : PowerCC26X2_tirtos.oem4f (.text:PowerCC26XX_standbyPolicy)
                             0000efac   maclib_osal_tirtos_cc13x2_26x2.a : osal_port.obj (.text:OsalPort_setTimer)
                             00016310   dpl_cc13x2.a : ClockP_tirtos.oem4f (.text:ClockP_setTimeout)
ti_sysbios_knl_Queue_enqueue__E  $Tramp$TT$L$PI$$ti_sysbios_knl_Queue_enqueue__E
   1002ebd9     0001662c     00004db6   npi_task.obj (.text:NPITask_Fxn)
                             0000dcdc   rom_sysbios.aem4f : rom_sysbios.obj (.text:ti_sysbios_knl_Task_setPri__E)
                             00011e88   npi_task.obj (.text:NPITask_incomingFrameCB$11)
                             0001434a   rom_sysbios.aem4f : rom_sysbios.obj (.text:ti_sysbios_gates_GateMutexPri_insertPri__I)
ti_sysbios_knl_Queue_empty__E  $Tramp$TT$L$PI$$ti_sysbios_knl_Queue_empty__E
   1002eb21     00016634     00004cf8   npi_task.obj (.text:NPITask_Fxn)
                             00004d1c   npi_task.obj (.text:NPITask_Fxn)
                             00004dec   npi_task.obj (.text:NPITask_Fxn)
                             00004e2c   npi_task.obj (.text:NPITask_Fxn)
                             0000dcc4   rom_sysbios.aem4f : rom_sysbios.obj (.text:ti_sysbios_knl_Task_setPri__E)
                             00010796                     : rom_sysbios.obj (.text:ti_sysbios_gates_GateMutexPri_leave__E)
ti_sysbios_knl_Queue_dequeue__E  $Tramp$TT$L$PI$$ti_sysbios_knl_Queue_dequeue__E
   1002ebcd     0001663c     00004cc2   npi_task.obj (.text:NPITask_Fxn)
                             00004e00   npi_task.obj (.text:NPITask_Fxn)
                             0001079e   rom_sysbios.aem4f : rom_sysbios.obj (.text:ti_sysbios_gates_GateMutexPri_leave__E)
ti_sysbios_knl_Semaphore_post__E  $Tramp$TT$L$PI$$ti_sysbios_knl_Semaphore_post__E
   1002cd21     00016644     00004cb6   npi_task.obj (.text:NPITask_Fxn)
                             00004d00   npi_task.obj (.text:NPITask_Fxn)
                             00004d2c   npi_task.obj (.text:NPITask_Fxn)
                             00004dc4   npi_task.obj (.text:NPITask_Fxn)
                             00004e34   npi_task.obj (.text:NPITask_Fxn)
                             0001049c   npi_task.obj (.text:NPITask_transportRXCallBack$11)
                             00011afe   maclib_osal_tirtos_cc13x2_26x2.a : osal_port.obj (.text:OsalPort_setEvent)
                             00011e96   npi_task.obj (.text:NPITask_incomingFrameCB$11)
                             000151c6   npi_task.obj (.text:NPITask_transportTxDoneCallBack$11)
                             0001635c   dpl_cc13x2.a : SemaphoreP_tirtos.oem4f (.text:SemaphoreP_post)
ti_sysbios_family_arm_m3_Hwi_restoreFxn__E  $Tramp$TT$L$PI$$ti_sysbios_family_arm_m3_Hwi_restoreFxn__E
   1002ec47     00057228     00056b7e   maclib_secure_cc13x2_zstack_subg.a : mac_rx.obj (.text:macRxFrameIsr)
                             00056b90                                      : mac_rx.obj (.text:macRxFrameIsr)
                             0005720e                                      : mac_rx.obj (.text:macRxFrameIsr)
                             00057ab8   macTask.obj (.text:macTaskFxn$16)
                             00057d00   macTask.obj (.text:macTaskFxn$16)
                             00057d7c   macTask.obj (.text:macTaskFxn$16)
                             00057dcc   macTask.obj (.text:macTaskFxn$16)
                             00057df0   macTask.obj (.text:macTaskFxn$16)
                             00057e96   macTask.obj (.text:macTaskFxn$16)
                             00002564   rf_multiMode_cc13x2.aem4f : RFCC26X2_multiMode.c.cc13x2.ccs.o (.text:RF_fsmActiveState)
                             00002664                             : RFCC26X2_multiMode.c.cc13x2.ccs.o (.text:RF_fsmActiveState)
                             00002704                             : RFCC26X2_multiMode.c.cc13x2.ccs.o (.text:RF_fsmActiveState)
                             000027f4                             : RFCC26X2_multiMode.c.cc13x2.ccs.o (.text:RF_fsmActiveState)
                             00002878                             : RFCC26X2_multiMode.c.cc13x2.ccs.o (.text:RF_fsmActiveState)
                             00002904                             : RFCC26X2_multiMode.c.cc13x2.ccs.o (.text:RF_fsmActiveState)
                             00002928                             : RFCC26X2_multiMode.c.cc13x2.ccs.o (.text:RF_fsmActiveState)
                             00002d3a   maclib_secure_cc13x2_zstack_subg.a : mac_radio_tx.obj (.text:macRadioTxGoSubG$38)
                             00002d72                                      : mac_radio_tx.obj (.text:macRadioTxGoSubG$38)
                             00002ff4                                      : mac_hl_patch.obj (.text:macWrapperAddDevice)
                             000030ba                                      : mac_hl_patch.obj (.text:macWrapperAddDevice)
                             0000318e                                      : mac_hl_patch.obj (.text:macWrapperAddDevice)
                             000031a0                                      : mac_hl_patch.obj (.text:macWrapperAddDevice)
                             000031e4                                      : mac_hl_patch.obj (.text:macWrapperAddDevice)
                             000031f0                                      : mac_hl_patch.obj (.text:macWrapperAddDevice)
                             00004962                                      : mac_tx.obj (.text:macTxFrame)
                             00004970                                      : mac_tx.obj (.text:macTxFrame)
                             00005932                                      : mac_pwr.obj (.text:macPwrVote)
                             0000594a                                      : mac_pwr.obj (.text:macPwrVote)
                             00005984                                      : mac_pwr.obj (.text:macPwrVote)
                             000064de                                      : mac.obj (.text:macSendReceiveCmdIeee)
                             00006882                                      : mac.obj (.text:macSendReceiveCmdSubG)
                             000068f8                                      : mac.obj (.text:macSendReceiveCmdSubG)
                             00006b38   rf_multiMode_cc13x2.aem4f : RFCC26X2_multiMode.c.cc13x2.ccs.o (.text:RF_scheduleCmd)
                             00006da2                             : RFCC26X2_multiMode.c.cc13x2.ccs.o (.text:RF_open)
                             00006e9a                             : RFCC26X2_multiMode.c.cc13x2.ccs.o (.text:RF_open)
                             000070e6   maclib_secure_cc13x2_zstack_subg.a : mac_radio_tx.obj (.text:macRadioTxAck$38)
                             000070f6                                      : mac_radio_tx.obj (.text:macRadioTxAck$38)
                             000074fe                                      : mac_hl_patch.obj (.text:macWrapperAddKeyInitFCtr)
                             00007a1e                                      : mac_hl_patch.obj (.text:macWrapperDeleteKeyAndAssociatedDevices)
                             00007b92                                      : mac_radio_tx.obj (.text:macRadioTxGoIeee$38)
                             00007fba                                      : mac_hl_patch.obj (.text:macWrapperDeleteDevice)
                             00008086                                      : mac_hl_patch.obj (.text:macWrapperDeleteDevice)
                             00008ca6   drivers_cc13x2.a : UARTCC26XX.oem4f (.text:UARTCC26XX_open)
                             00008cb2                    : UARTCC26XX.oem4f (.text:UARTCC26XX_open)
                             00008d3c                    : UARTCC26XX.oem4f (.text:UARTCC26XX_open)
                             00008f40   maclib_secure_cc13x2_zstack_subg.a : mac_hl_patch.obj (.text:macWrapperDeleteAllDevices)
                             00008f9a                                      : mac_tx.obj (.text:txCsmaDelay)
                             00008fa4                                      : mac_tx.obj (.text:txCsmaDelay)
                             0000901a                                      : mac_tx.obj (.text:txCsmaDelay)
                             0000905a                                      : mac_tx.obj (.text:txCsmaDelay)
                             00009072                                      : mac_tx.obj (.text:txCsmaDelay)
                             0000958a   rf_multiMode_cc13x2.aem4f : RFCC26X2_multiMode.c.cc13x2.ccs.o (.text:RF_radioOpDoneCb)
                             00009da2                             : RFCC26X2_multiMode.c.cc13x2.ccs.o (.text:RF_ratSetupChannel)
                             00009dfc   drivers_cc13x2.a : UARTCC26XX.oem4f (.text:UARTCC26XX_read)
                             00009e58                    : UARTCC26XX.oem4f (.text:UARTCC26XX_read)
                             00009e80                    : UARTCC26XX.oem4f (.text:UARTCC26XX_read)
                             00009e92                    : UARTCC26XX.oem4f (.text:UARTCC26XX_read)
                             00009edc                    : UARTCC26XX.oem4f (.text:UARTCC26XX_read)
                             00009eec                    : UARTCC26XX.oem4f (.text:UARTCC26XX_read)
                             00009fce                    : NVSCC26XX.oem4f (.text:NVSCC26XX_write)
                             0000a14e   rf_multiMode_cc13x2.aem4f : RFCC26X2_multiMode.c.cc13x2.ccs.o (.text:RF_abortCmd)
                             0000a596                             : RFCC26X2_multiMode.c.cc13x2.ccs.o (.text:RF_close)
                             0000a60a                             : RFCC26X2_multiMode.c.cc13x2.ccs.o (.text:RF_close)
                             0000a838   maclib_secure_cc13x2_zstack_subg.a : mac.obj (.text:macSetupRATChanCompare)
                             0000aa0a   drivers_cc13x2.a : PINCC26XX.oem4f (.text:PINCC26XX_setIoCfg)
                             0000aa50                    : PINCC26XX.oem4f (.text:PINCC26XX_setIoCfg)
                             0000b98c   maclib_secure_cc13x2_zstack_subg.a : mac_rx.obj (.text:rxPostRxUpdates$29)
                             0000b9c6                                      : mac_rx.obj (.text:rxPostRxUpdates$29)
                             0000ba20   drivers_cc13x2.a : UARTCC26XX.oem4f (.text:UARTCC26XX_write)
                             0000ba42                    : UARTCC26XX.oem4f (.text:UARTCC26XX_write)
                             0000ba98                    : UARTCC26XX.oem4f (.text:UARTCC26XX_write)
                             0000bd5e   rf_multiMode_cc13x2.aem4f : RFCC26X2_multiMode.c.cc13x2.ccs.o (.text:RF_control)
                             0000c2be                             : RFCC26X2_multiMode.c.cc13x2.ccs.o (.text:RF_swiHw)
                             0000c7a2   maclib_secure_cc13x2_zstack_subg.a : mac_pwr.obj (.text:MAC_PwrOffReq)
                             0000c7c0                                      : mac_pwr.obj (.text:MAC_PwrOffReq)
                             0000c954   drivers_cc13x2.a : PowerCC26X2.oem4f (.text:Power_releaseDependency)
                             0000cdc6                    : PowerCC26X2.oem4f (.text:Power_setDependency)
                             0000cf2e                    : TRNGCC26XX.oem4f (.text:TRNG_generateEntropy)
                             0000d0dc   maclib_secure_cc13x2_zstack_subg.a : mac_radio.obj (.text:macRadioUpdateTxPower)
                             0000d142                                      : mac_radio.obj (.text:macRadioUpdateTxPower)
                             0000d1f6                                      : mac.obj (.text:macStopCmd)
                             0000da8a   rf_multiMode_cc13x2.aem4f : RFCC26X2_multiMode.c.cc13x2.ccs.o (.text:RF_requestAccess)
                             0000de98   maclib_secure_cc13x2_zstack_subg.a : mac_radio.obj (.text:macRadioUpdateChannel)
                             0000dea0                                      : mac_radio.obj (.text:macRadioUpdateChannel)
                             0000df34                                      : mac_radio.obj (.text:macRadioUpdateChannelRx)
                             0000df3a                                      : mac_radio.obj (.text:macRadioUpdateChannelRx)
                             0000e006                                      : mac_rx_onoff.obj (.text:macRxOffRequest)
                             0000e0b0                                      : mac_timer.obj (.text:macTimerRealign)
                             0000e508   drivers_cc13x2.a : UARTCC26XX.oem4f (.text:writeTxFifoFlush)
                             0000e7ba                    : TRNGCC26XX.oem4f (.text:TRNGCC26XX_hwiFxn)
                             0000e852   board_led.obj (.text:board_led_blinkTimeoutCB$8)
                             0000e96e   maclib_secure_cc13x2_zstack_subg.a : mac.obj (.text:macRatCb_A)
                             0000ea54   drivers_cc13x2.a : UARTCC26XX.oem4f (.text:UARTCC26XX_writeCancel)
                             0000ea6a                    : UARTCC26XX.oem4f (.text:UARTCC26XX_writeCancel)
                             0000ea9e                    : UARTCC26XX.oem4f (.text:UARTCC26XX_writeCancel)
                             0000eb28   maclib_secure_cc13x2_zstack_subg.a : mac_hl_patch.obj (.text:MAC_ResumeReq)
                             0000ec5e   rf_multiMode_cc13x2.aem4f : RFCC26X2_multiMode.c.cc13x2.ccs.o (.text:RF_getInfo)
                             0000ecf0   maclib_secure_cc13x2_zstack_subg.a : mac_hl_patch.obj (.text:macCcmDecrypt)
                             0000f0c8                                      : mac_hl_patch.obj (.text:macCcmEncrypt)
                             0000f9bc   rf_multiMode_cc13x2.aem4f : RFCC26X2_multiMode.c.cc13x2.ccs.o (.text:RF_issueRadioFreeCb)
                             0000f9d4                             : RFCC26X2_multiMode.c.cc13x2.ccs.o (.text:RF_issueRadioFreeCb)
                             000100d4                             : RFCC26X2_multiMode.c.cc13x2.ccs.o (.text:RF_ratFreeChannel)
                             000100fa   maclib_secure_cc13x2_zstack_subg.a : mac_rx_onoff.obj (.text:macRxOn)
                             00010114                                      : mac_rx_onoff.obj (.text:macRxOn)
                             0001013a                                      : mac_rx_onoff.obj (.text:macRxOn)
                             0001029e   board_led.obj (.text:Board_Led_control)
                             000103ac   maclib_secure_cc13x2_zstack_subg.a : mac_timer.obj (.text:macTimerSetRollover)
                             000105f6   rf_multiMode_cc13x2.aem4f : RFCC26X2_multiMode.c.cc13x2.ccs.o (.text:RF_ratDisableChannel)
                             0001063e                             : RFCC26X2_multiMode.c.cc13x2.ccs.o (.text:RF_yield)
                             00010672                             : RFCC26X2_multiMode.c.cc13x2.ccs.o (.text:RF_yield)
                             00010698   drivers_cc13x2.a : TRNGCC26XX.oem4f (.text:TRNG_construct)
                             000106a6                    : TRNGCC26XX.oem4f (.text:TRNG_construct)
                             000109b4   rf_multiMode_cc13x2.aem4f : RFCC26X2_multiMode.c.cc13x2.ccs.o (.text:RF_getCurrentTime)
                             000109f0                             : RFCC26X2_multiMode.c.cc13x2.ccs.o (.text:RF_getCurrentTime)
                             00010dd8                             : RFCC26X2_multiMode.c.cc13x2.ccs.o (.text:RF_dispatchNextEvent)
                             00010ee4   maclib_secure_cc13x2_zstack_subg.a : mac_tx.obj (.text:macTxDoneCallback)
                             00010f0e                                      : mac_tx.obj (.text:macTxDoneCallback)
                             00010f1a                                      : mac_tx.obj (.text:macTxDoneCallback)
                             0001115e                                      : mac_rx.obj (.text:macRxHaltCleanup)
                             000113de   drivers_cc13x2.a : UARTCC26XX.oem4f (.text:UARTCC26XX_control)
                             0001151c   maclib_secure_cc13x2_zstack_subg.a : mac_timer.obj (.text:macTimerAddTimer)
                             00011662   drivers_cc13x2.a : AESCCMCC26XX.oem4f (.text:AESCCM_hwiFxn)
                             0001169e                    : AESCCMCC26XX.oem4f (.text:AESCCM_hwiFxn)
                             000116f4                    : CryptoResourceCC26XX.oem4f (.text:CryptoResourceCC26XX_constructRTOSObjects)
                             000118e4   maclib_secure_cc13x2_zstack_subg.a : mac_timer.obj (.text:macTimerCancel)
                             00011c0c   drivers_cc13x2.a : NVSCC26XX.oem4f (.text:doErase)
                             00011cca   maclib_secure_cc13x2_zstack_subg.a : mac_radio.obj (.text:macRadioSetChannel)
                             00011cd2                                      : mac_radio.obj (.text:macRadioSetChannel)
                             00011d26                                      : mac_radio.obj (.text:macRadioSetChannelRx)
                             00011d2e                                      : mac_radio.obj (.text:macRadioSetChannelRx)
                             00011f32   drivers_cc13x2.a : PowerCC26X2_calibrateRCOSC.oem4f (.text:PowerCC26X2_initiateCalibration)
                             00011ff6                    : TRNGCC26XX.oem4f (.text:TRNG_init)
                             0001223c                    : AESCCMCC26XX.oem4f (.text:AESCCM_construct)
                             00012248                    : AESCCMCC26XX.oem4f (.text:AESCCM_construct)
                             000123a0                    : NVSCC26XX.oem4f (.text:NVSCC26XX_init)
                             000123b0                    : NVSCC26XX.oem4f (.text:NVSCC26XX_init)
                             00012434                    : StructRingBuf.oem4f (.text:StructRingBuf_put)
                             00012468                    : StructRingBuf.oem4f (.text:StructRingBuf_put)
                             000125e6   maclib_secure_cc13x2_zstack_subg.a : mac_tx.obj (.text:macTxAckReceivedCallback)
                             00012602                                      : mac_tx.obj (.text:macTxAckReceivedCallback)
                             0001277e                                      : mac_rx_onoff.obj (.text:macRxDisable)
                             000127e6                                      : mac_timer.obj (.text:macTimerStart)
                             000129fc   drivers_cc13x2.a : StructRingBuf.oem4f (.text:StructRingBuf_get)
                             00012a06                    : StructRingBuf.oem4f (.text:StructRingBuf_get)
                             00012a36                    : UARTCC26XX.oem4f (.text:UARTCC26XX_readCancel)
                             00012a4a                    : UARTCC26XX.oem4f (.text:UARTCC26XX_readCancel)
                             00012b6e   maclib_secure_cc13x2_zstack_subg.a : mac_low_level.obj (.text:macLowLevelYield)
                             00012e0e   drivers_cc13x2.a : PINCC26XX.oem4f (.text:PIN_setOutputEnable)
                             00012e88                    : PowerCC26X2.oem4f (.text:PowerCC26XX_switchXOSC_HF)
                             000130ea   maclib_secure_cc13x2_zstack_subg.a : mac_timer.obj (.text:macTimerUpdActive)
                             00013112   drivers_cc13x2.a : PowerCC26X2.oem4f (.text:switchXOSCHF)
                             00013198                    : RingBuf.oem4f (.text:RingBuf_put)
                             000131c2                    : RingBuf.oem4f (.text:RingBuf_put)
                             00013238   maclib_secure_cc13x2_zstack_subg.a : mac_timer.obj (.text:MAC_PwrNextTimeout)
                             00013352   drivers_cc13x2.a : UART.oem4f (.text:UART_init)
                             000135de                    : PowerCC26X2.oem4f (.text:PowerCC26XX_isStableXOSC_HF)
                             00013622                    : Random.oem4f (.text:Random_getNumber)
                             00013662                    : RingBuf.oem4f (.text:RingBuf_get)
                             0001366a                    : RingBuf.oem4f (.text:RingBuf_get)
                             0001375e   maclib_secure_cc13x2_zstack_subg.a : mac.obj (.text:macRatCb_B)
                             0001379e                                      : mac_rx.obj (.text:macRxNokIsr)
                             00013824                                      : mac_symbol_timer.obj (.text:macSymbolTimerSetTrigger)
                             00013bca   rf_multiMode_cc13x2.aem4f : RFCC26X2_multiMode.c.cc13x2.ccs.o (.text:RF_cmdStoreEvents)
                             00013e3c                             : RFCC26X2_multiMode.c.cc13x2.ccs.o (.text:RF_powerConstraintRelease)
                             00013ed4   maclib_secure_cc13x2_zstack_subg.a : mac_tx.obj (.text:macTxAckNotReceivedCallback)
                             00013ede                                      : mac_tx.obj (.text:macTxAckNotReceivedCallback)
                             00014174   rf_multiMode_cc13x2.aem4f : RFCC26X2_multiMode.c.cc13x2.ccs.o (.text:RF_runDirectImmediateCmd)
                             00014272   maclib_secure_cc13x2_zstack_subg.a : mac_symbol_timer.obj (.text:macSymbolTimerCount)
                             00014434   drivers_cc13x2.a : PowerCC26X2.oem4f (.text:Power_releaseConstraint)
                             00014464                    : PowerCC26X2.oem4f (.text:Power_setConstraint)
                             00014520   maclib_secure_cc13x2_zstack_subg.a : mac_rx_onoff.obj (.text:macRxSoftDisable)
                             0001454c                                      : mac_symbol_timer.obj (.text:macSymbolTimerBCWakeUp)
                             00014570                                      : mac_symbol_timer.obj (.text:macSymbolTimerICallTimerCback)
                             000145b4                                      : mac_timer.obj (.text:macTimerCheckUnAlignedQ)
                             00014792   rf_multiMode_cc13x2.aem4f : RFCC26X2_multiMode.c.cc13x2.ccs.o (.text:RF_queueEnd)
                             000149c8   maclib_secure_cc13x2_zstack_subg.a : mac_rx_onoff.obj (.text:macRxSoftEnable)
                             000149f6                                      : mac_symbol_timer.obj (.text:macSymbolTimerSetRollover)
                             00014b30   drivers_cc13x2.a : List.oem4f (.text:List_insert)
                             00014d8c                    : List.oem4f (.text:List_put)
                             00014db2                    : List.oem4f (.text:List_putHead)
                             00014dd8                    : List.oem4f (.text:List_remove)
                             000150a4                    : List.oem4f (.text:List_get)
                             0001512a   dpl_cc13x2.a : HwiP_tirtos.oem4f (.text:HwiP_setFunc)
                             00015264   drivers_cc13x2.a : PowerCC26X2.oem4f (.text:Power_unregisterNotify)
                             000153ca                    : UARTCC26XX.oem4f (.text:threadSafeStdbyDisRelease)
                             000153ea                    : UARTCC26XX.oem4f (.text:threadSafeStdbyDisSet)
                             00015698   rf_multiMode_cc13x2.aem4f : RFCC26X2_multiMode.c.cc13x2.ccs.o (.text:RF_powerConstraintSet)
                             00015ab2   maclib_secure_cc13x2_zstack_subg.a : mac_symbol_timer.obj (.text:macSymbolTimerSetTriggerRollover)
                             00015c14   maclib_osal_tirtos_cc13x2_26x2.a : osal_port.obj (.text:OsalPort_leaveCS)
                             00015c9e   drivers_cc13x2.a : List.oem4f (.text:List_clearList)
MAC_StartFH               $Tramp$TT$L$PI$$MAC_StartFH
   10039d41     000579dc     000572cc   mt_mac.obj (.text:MtMac_commandProcessing)
macWrapperGetDefaultSourceKey  $Tramp$TT$L$PI$$macWrapperGetDefaultSourceKey
   1003c6e9     000579e4     00057312   mt_mac.obj (.text:MtMac_commandProcessing)
macUpdatePanId            $Tramp$TT$L$PI$$macUpdatePanId
   1003b9f1     000579ec     0005737e   mt_mac.obj (.text:MtMac_commandProcessing)
MAC_MlmeSetSecurityReq    $Tramp$TT$L$PI$$MAC_MlmeSetSecurityReq
   1003a99d     000579f4     000575ea   mt_mac.obj (.text:MtMac_commandProcessing)
MAC_MlmeGetSecurityReqSize  $Tramp$TT$L$PI$$MAC_MlmeGetSecurityReqSize
   1003b101     000579fc     000576b0   mt_mac.obj (.text:MtMac_commandProcessing)
MAC_MlmeGetSecurityReq    $Tramp$TT$L$PI$$MAC_MlmeGetSecurityReq
   1003af09     00057a04     000576b8   mt_mac.obj (.text:MtMac_commandProcessing)
MAC_McpsPurgeReq          $Tramp$TT$L$PI$$MAC_McpsPurgeReq
   10036455     00057a0c     00057826   mt_mac.obj (.text:MtMac_commandProcessing)
MAC_MlmeGetReq            $Tramp$TT$L$PI$$MAC_MlmeGetReq
   1003a169     00057a14     0005786a   mt_mac.obj (.text:MtMac_commandProcessing)
                             0000889c   mt_util.obj (.text:MtUtil_commandProcessing)
                             0000edb6   api_mac.obj (.text:ApiMac_mlmeGetReqArrayLen)
MAC_MlmeSyncReq           $Tramp$TT$L$PI$$MAC_MlmeSyncReq
   10039ddd     00057a1c     00057936   mt_mac.obj (.text:MtMac_commandProcessing)
xdc_runtime_System_abort__E  $Tramp$TT$L$PI$$xdc_runtime_System_abort__E
   1002f711     00057f0c     00057a5e   macTask.obj (.text:macTaskFxn$16)
                             00057a96   macTask.obj (.text:macTaskFxn$16)
MAC_Init                  $Tramp$TT$L$PI$$MAC_Init
   100399cd     00057f14     00057a9a   macTask.obj (.text:macTaskFxn$16)
MAC_InitDevice            $Tramp$TT$L$PI$$MAC_InitDevice
   10037c45     00057f1c     00057a9e   macTask.obj (.text:macTaskFxn$16)
MAC_InitCoord             $Tramp$TT$L$PI$$MAC_InitCoord
   1003624d     00057f24     00057aa2   macTask.obj (.text:macTaskFxn$16)
MAC_InitBeaconDevice      $Tramp$TT$L$PI$$MAC_InitBeaconDevice
   10035159     00057f2c     00057aa6   macTask.obj (.text:macTaskFxn$16)
MAC_InitBeaconCoord       $Tramp$TT$L$PI$$MAC_InitBeaconCoord
   10034849     00057f34     00057aaa   macTask.obj (.text:macTaskFxn$16)
MAC_InitFH                $Tramp$TT$L$PI$$MAC_InitFH
   10038e15     00057f3c     00057aae   macTask.obj (.text:macTaskFxn$16)
macExecute                $Tramp$TT$L$PI$$macExecute
   1003871d     00057f44     00057bbc   macTask.obj (.text:macTaskFxn$16)
                             00057bd0   macTask.obj (.text:macTaskFxn$16)
                             00057be4   macTask.obj (.text:macTaskFxn$16)
                             00057bf8   macTask.obj (.text:macTaskFxn$16)
                             00057c0c   macTask.obj (.text:macTaskFxn$16)
                             00057c24   macTask.obj (.text:macTaskFxn$16)
                             00057c3c   macTask.obj (.text:macTaskFxn$16)
                             00057c54   macTask.obj (.text:macTaskFxn$16)
                             00057c6c   macTask.obj (.text:macTaskFxn$16)
                             00057c84   macTask.obj (.text:macTaskFxn$16)
                             00057c9c   macTask.obj (.text:macTaskFxn$16)
                             00057cb4   macTask.obj (.text:macTaskFxn$16)
                             00057d10   macTask.obj (.text:macTaskFxn$16)
                             00057e5e   macTask.obj (.text:macTaskFxn$16)
                             00057ee8   macTask.obj (.text:macTaskFxn$16)
ti_sysbios_knl_Clock_delete  $Tramp$TT$L$PI$$ti_sysbios_knl_Clock_delete
   1002ecbb     00057f4c     00057cce   macTask.obj (.text:macTaskFxn$16)
                             0000ac40   maclib_secure_cc13x2_zstack_subg.a : mac_hl_patch.obj (.text:macEdScanISR)
                             00016060   dpl_cc13x2.a : ClockP_tirtos.oem4f (.text:ClockP_delete)
mac_msg_deallocate        $Tramp$TT$L$PI$$mac_msg_deallocate
   100387f9     00057f54     00057d1c   macTask.obj (.text:macTaskFxn$16)
                             00057e6a   macTask.obj (.text:macTaskFxn$16)
                             00057ede   macTask.obj (.text:macTaskFxn$16)
                             00057efe   macTask.obj (.text:macTaskFxn$16)
                             0000a88e   macTask.obj (.text:MAC_CbackEvent)
ti_sysbios_knl_Task_enable__E  $Tramp$TT$L$PI$$ti_sysbios_knl_Task_enable__E
   1002ec71     00057f5c     00057d22   macTask.obj (.text:macTaskFxn$16)
ti_sysbios_knl_Semaphore_pend__E  $Tramp$TT$L$PI$$ti_sysbios_knl_Semaphore_pend__E
   1002bfb1     00057f64     00057d52   macTask.obj (.text:macTaskFxn$16)
                             00004d36   npi_task.obj (.text:NPITask_Fxn)
                             0000626a   main.obj (.text:taskFxn$1)
                             00015eaa   dpl_cc13x2.a : SemaphoreP_tirtos.oem4f (.text:SemaphoreP_pend)
ti_sysbios_knl_Task_disable__E  $Tramp$TT$L$PI$$ti_sysbios_knl_Task_disable__E
   1002ea4d     00057f6c     00057d5c   macTask.obj (.text:macTaskFxn$16)
                             0000dc84   rom_sysbios.aem4f : rom_sysbios.obj (.text:ti_sysbios_knl_Task_setPri__E)
                             0000f188                     : rom_sysbios.obj (.text:ti_sysbios_gates_GateMutexPri_enter__E)
                             00010778                     : rom_sysbios.obj (.text:ti_sysbios_gates_GateMutexPri_leave__E)
                             000145c6   app_cop_pem4f.oem4f (.text:ti_sysbios_BIOS_atExitFunc__I)
                             000155e2   dpl_cc13x2.a : PowerCC26X2_tirtos.oem4f (.text:PowerCC26XX_schedulerDisable)
                             0001582a   maclib_osal_tirtos_cc13x2_26x2.a : osal_port.obj (.text:OsalPort_enterCS)
macCommStatusInd          $Tramp$TT$L$PI$$macCommStatusInd
   100393ed     00057f74     00057ed0   macTask.obj (.text:macTaskFxn$16)

[107 trampolines]
[402 trampoline calls]


GLOBAL SYMBOLS: SORTED ALPHABETICALLY BY Name 

address   name                                                            
-------   ----                                                            
00016257  AESCCM_Operation_init                                           
00015ecd  AESCCM_Params_init                                              
0001604f  AESCCM_close                                                    
00002434  AESCCM_config                                                   
00012225  AESCCM_construct                                                
000023fa  AESCCM_count                                                    
0000232c  AESCCM_defaultParams                                            
20003d00  AESCCM_handle                                                   
00015c7d  AESCCM_init                                                     
0001629f  AESCCM_oneStepDecrypt                                           
000162a5  AESCCM_oneStepEncrypt                                           
00015edd  AESCCM_open                                                     
00013cfb  ApiMac_buildMsgCapInfo                                          
0001400d  ApiMac_convertCapabilityInfo                                    
000162f9  ApiMac_enableFH                                                 
2000291c  ApiMac_extAddr                                                  
0000fb6d  ApiMac_init                                                     
0000ed95  ApiMac_mlmeGetReqArrayLen                                       
000162fd  ApiMac_mlmeResetReq                                             
0000f1f5  ApiMac_mlmeSetReqArray                                          
10039e55  ApiMac_randomByte                                               
20000123  AppTaskId                                                       
000020cc  BoardGpioInitTable                                              
00010259  Board_Led_control                                               
000150f1  Board_init                                                      
00009ef7  Board_initHook                                                  
00011529  Board_sendExtFlashByte                                          
00013d35  Board_shutDownExtFlash                                          
00012cbd  Board_wakeUpExtFlash                                            
000023f9  CONFIG_AESCCM_0_CONST                                           
00002401  CONFIG_DISPLAY_UART_CONST                                       
000023fd  CONFIG_GPIO_BTN1_CONST                                          
000023fe  CONFIG_GPIO_BTN2_CONST                                          
000023fc  CONFIG_GPIO_GLED_CONST                                          
000023fb  CONFIG_GPIO_RLED_CONST                                          
000023ff  CONFIG_NVSINTERNAL_CONST                                        
000161e9  ClockP_Params_init                                              
000134b5  ClockP_construct                                                
000134f5  ClockP_create                                                   
0001605b  ClockP_delete                                                   
00016305  ClockP_destruct                                                 
00016309  ClockP_getCpuFreq                                               
00016069  ClockP_getSystemTickPeriod                                      
1002dc11  ClockP_getSystemTicks                                           
0001630d  ClockP_getTimeout                                               
00015eed  ClockP_isActive                                                 
00016311  ClockP_setTimeout                                               
00016315  ClockP_start                                                    
00016319  ClockP_stop                                                     
00015fed  CryptoKeyPlaintext_initBlankKey                                 
00015ffb  CryptoKeyPlaintext_initKey                                      
200037ec  CryptoResourceCC26XX_accessSemaphore                            
000116b1  CryptoResourceCC26XX_constructRTOSObjects                       
20003bb0  CryptoResourceCC26XX_hwi                                        
2000383c  CryptoResourceCC26XX_operationSemaphore                         
20002d88  CryptoResourceCC26XX_pollingFlag                                
00015069  CryptoUtils_buffersMatch                                        
000023f8  Display_count                                                   
10030ad1  FHAPI_SFDRxCb                                                   
10030501  FHAPI_completeRxCb                                              
1003035d  FHAPI_completeTxCb                                              
10030bad  FHAPI_getBitCount                                               
10030a81  FHAPI_getRemDT                                                  
10030b81  FHAPI_getTxChHoppingFunc                                        
10030a21  FHAPI_getTxParams                                               
100308d1  FHAPI_getTxParams_old                                           
10030809  FHAPI_reset                                                     
10030689  FHAPI_sendData                                                  
10030b51  FHAPI_setStateCb                                                
10030101  FHAPI_start                                                     
10030989  FHAPI_startBS                                                   
10030b11  FHAPI_stopAsync                                                 
10030cb5  FHDATA_CheckMinTxOffTime                                        
10031011  FHDATA_asyncMinTxOffTimerCb                                     
10031029  FHDATA_checkPktFromQueue                                        
10030fb5  FHDATA_chkASYNCStartReq                                         
10030f65  FHDATA_getASYNCDelay                                            
10030d61  FHDATA_getPktFromQueue                                          
10030bd1  FHDATA_procASYNCReq                                             
1003103d  FHDATA_procEDFEReq                                              
10030e89  FHDATA_purgePktFromQueue                                        
10030e05  FHDATA_purgeUnSupportedFrameTypes                               
10030efd  FHDATA_requeuePkt                                               
10031051  FHDATA_startEDFEReq                                             
10031065  FHDATA_startEDFETimer                                           
10030fed  FHDATA_updateCCA                                                
10031129  FHDH1CF_getBCChannelNum                                         
100312f5  FHDH1CF_getBcCh                                                 
10031209  FHDH1CF_getCh                                                   
1003125d  FHDH1CF_getChannelNum                                           
100312b1  FHDH1CF_getTxChannelNum                                         
10031069  FHDH1CF_hashword                                                
100311ad  FHDH1CF_mapChIdxChannel                                         
2000388c  FHFSM_Dbg                                                       
0001631d  FHIEPATCH_extractHie                                            
00016321  FHIEPATCH_extractPie                                            
00016325  FHIEPATCH_genHie                                                
00016329  FHIEPATCH_genPieContent                                         
0001632d  FHIEPATCH_getHieLen                                             
00016331  FHIEPATCH_getPieContentLen                                      
000161f3  FHIEPATCH_getPieId                                              
00016335  FHIEPATCH_parseHie                                              
00016339  FHIEPATCH_parsePie                                              
2000262c  FHIE_channelPlan                                                
1003230d  FHIE_extractHie                                                 
1003197d  FHIE_extractPie                                                 
10032905  FHIE_gen                                                        
1003248d  FHIE_genBTIE                                                    
10031fed  FHIE_genCommonInformation                                       
10032689  FHIE_genExcludedChannelMask                                     
100323cd  FHIE_genExcludedChannelRanges                                   
10031d91  FHIE_genHie                                                     
1003210d  FHIE_genPie                                                     
10031325  FHIE_genPieContent                                              
10032755  FHIE_genUTIE                                                    
10032519  FHIE_getCcaSfdTime                                              
100326f1  FHIE_getChannelPlan                                             
100327b1  FHIE_getCommonInformationLen                                    
10032859  FHIE_getExcludedChannelControl                                  
10032939  FHIE_getHie                                                     
10032619  FHIE_getHieLen                                                  
1003296d  FHIE_getLen                                                     
100328cf  FHIE_getPie                                                     
1003220d  FHIE_getPieContentLen                                           
10032599  FHIE_getPieLen                                                  
10032895  FHIE_getSubPie                                                  
10032805  FHIE_isChannelPlanValid                                         
10031ba9  FHIE_parseCommonInformation                                     
10031ec9  FHIE_parseHie                                                   
10031699  FHIE_parsePie                                                   
10032cf5  FHMGR_BCTimerEventUpd                                           
1003299d  FHMGR_bcTimerIsrCb                                              
10032d11  FHMGR_macCancelFHTimer                                          
10032d29  FHMGR_macGetElapsedFHTime                                       
10032c1d  FHMGR_macStartFHTimer                                           
10032cc9  FHMGR_macStartOneShotTimer                                      
10032d41  FHMGR_pendBcChUpdate                                            
10032d47  FHMGR_pendUcChUpdate                                            
10032bb5  FHMGR_ucTimerIsrCb                                              
10032c75  FHMGR_updateHopping                                             
10032b45  FHMGR_updateRadioBCChannel                                      
10032acd  FHMGR_updateRadioUCChannel                                      
10033119  FHNT_AddDeviceCB                                                
20003cf4  FHNT_Dbg                                                        
100337b1  FHNT_DelDeviceCB                                                
1003374d  FHNT_addOptEntry                                                
10033381  FHNT_addTempEUI                                                 
10033aa9  FHNT_assessTime                                                 
10033209  FHNT_createEntry                                                
100332c5  FHNT_createFixedEntry                                           
1003386d  FHNT_delTempIndex                                               
10033969  FHNT_getAvailEntry                                              
100339f9  FHNT_getEUI                                                     
10032fe1  FHNT_getEntry                                                   
100335f5  FHNT_getFixedEntry                                              
100338c1  FHNT_getFixedNTIndexFromTempIndex                               
10033671  FHNT_getNTIndexFromTempIndex                                    
100336e5  FHNT_getOptEntry                                                
100334c5  FHNT_getRemoveEntry                                             
10032ea1  FHNT_getRemoveEntryFromTemp                                     
1003355d  FHNT_getRemoveFixedEntry                                        
2000394c  FHNT_hnd                                                        
10033a75  FHNT_init                                                       
10033429  FHNT_initTempTable                                              
10032d4d  FHNT_purgeEntry                                                 
10033a3d  FHNT_purgeTimerIsrCb                                            
10033915  FHNT_putEntry                                                   
100339b1  FHNT_putFixedEntry                                              
10033811  FHNT_reset                                                      
200036cc  FHNT_tableOpt                                                   
20003cdc  FHNT_tempTable                                                  
200034b4  FHPIB_db                                                        
000019fc  FHPIB_defaults                                                  
10033ca5  FHPIB_get                                                       
10033d25  FHPIB_getIndex                                                  
10033cf5  FHPIB_getLen                                                    
10033d41  FHPIB_reset                                                     
10033ac9  FHPIB_set                                                       
10033d59  FHSM_event                                                      
10033dcd  FHUTIL_adjBackOffDur                                            
100343fd  FHUTIL_assert                                                   
10034411  FHUTIL_calcUfsi                                                 
100343e5  FHUTIL_compBfioTxTime                                           
1003441b  FHUTIL_elapsedTime                                              
10033f09  FHUTIL_getBcTxParams                                            
100341c1  FHUTIL_getBitCounts                                             
100342a9  FHUTIL_getCh0                                                   
10034219  FHUTIL_getChannelSpacing                                        
100340cd  FHUTIL_getCurBfio                                               
10034261  FHUTIL_getCurUfsi                                               
100343c9  FHUTIL_getElapsedTime                                           
10034149  FHUTIL_getGuardTime                                             
100342e1  FHUTIL_getMaxChannels                                           
1003404d  FHUTIL_getTxChannel                                             
10034319  FHUTIL_getTxUfsi                                                
100343a1  FHUTIL_getUcChannel                                             
1003441f  FHUTIL_noAction                                                 
10034349  FHUTIL_updateBcNumChannels                                      
10034375  FHUTIL_updateUcNumChannels                                      
10033fc9  FHUTIl_updateBTIE                                               
20002ca8  FH_FSM                                                          
00001510  FH_PibTbl                                                       
00000e1c  FH_ROM_Flash_JT                                                 
20003540  FH_hnd                                                          
0000173c  FH_stateMatrix                                                  
20003d04  FH_test_var                                                     
20002cdc  FH_txTiming                                                     
10033d9d  FSM_transaction_debug                                           
20001f00  HEAPMGR_SIZE                                                    
0000003c  HMAC_ROM_Flash_JT                                               
00015efd  HwiP_Params_init                                                
00013935  HwiP_construct                                                  
0001633d  HwiP_destruct                                                   
00016341  HwiP_disable                                                    
00016345  HwiP_enableInterrupt                                            
00016349  HwiP_post                                                       
1002ec47  HwiP_restore                                                    
00015111  HwiP_setFunc                                                    
0001634d  HwiP_setPriority                                                
00001dcc  ICALL_OSAL_ROM_Flash_JT                                         
UNDEFED   ITM_flush                                                       
UNDEFED   ITM_restore                                                     
00001930  LMAC_ROM_Flash_JT                                               
00015c91  List_clearList                                                  
0001508b  List_get                                                        
00014b0d  List_insert                                                     
00014d6d  List_put                                                        
00014d93  List_putHead                                                    
00014db9  List_remove                                                     
00015ca5  MAC_CbackCheckPending                                           
0000a861  MAC_CbackEvent                                                  
00015cb9  MAC_CbackQueryRetransmit                                        
10039cbd  MAC_EnableFH                                                    
1003a1b9  MAC_GetPHYParamReq                                              
100399cd  MAC_Init                                                        
10034849  MAC_InitBeaconCoord                                             
10035159  MAC_InitBeaconDevice                                            
1003624d  MAC_InitCoord                                                   
10037c45  MAC_InitDevice                                                  
10038e15  MAC_InitFH                                                      
10036e05  MAC_McpsDataAlloc                                               
10036729  MAC_McpsDataReq                                                 
10036455  MAC_McpsPurgeReq                                                
10037ea5  MAC_MlmeAssociateReq                                            
10036471  MAC_MlmeAssociateRsp                                            
10039dc1  MAC_MlmeDisassociateReq                                         
10039ce1  MAC_MlmeFHGetReq                                                
10039d01  MAC_MlmeFHGetReqSize                                            
10039d21  MAC_MlmeFHSetReq                                                
1003b159  MAC_MlmeGetPointerSecurityReq                                   
1003a169  MAC_MlmeGetReq                                                  
1003a275  MAC_MlmeGetReqSize                                              
1003af09  MAC_MlmeGetSecurityReq                                          
1003b101  MAC_MlmeGetSecurityReqSize                                      
1003648d  MAC_MlmeOrphanRsp                                               
10037ebd  MAC_MlmePollReq                                                 
100391c9  MAC_MlmeResetReq                                                
0000bff9  MAC_MlmeScanReq                                                 
10039ec5  MAC_MlmeSetReq                                                  
1003a99d  MAC_MlmeSetSecurityReq                                          
100364e1  MAC_MlmeStartReq                                                
10039ddd  MAC_MlmeSyncReq                                                 
10039df5  MAC_MlmeWSAsyncReq                                              
00016075  MAC_PwrMode                                                     
00013211  MAC_PwrNextTimeout                                              
0000c735  MAC_PwrOffReq                                                   
00013a2d  MAC_PwrOnReq                                                    
10039e55  MAC_RandomByte                                                  
0000eac5  MAC_ResumeReq                                                   
1003a1f9  MAC_SetPHYParamReq                                              
00015131  MAC_SrcMatchAckAllPending                                       
0000cf51  MAC_SrcMatchAddEntry                                            
00015ccd  MAC_SrcMatchCheckAllPending                                     
00014b37  MAC_SrcMatchDeleteEntry                                         
0000f27d  MAC_SrcMatchEnable                                              
10039d41  MAC_StartFH                                                     
10039c69  MAC_YieldReq                                                    
00009215  MT_sendResponse                                                 
000162ab  Main_excHandler                                                 
20000f48  Main_user1Cfg                                                   
00057f7d  MtMac_AssociateCnf                                              
00014043  MtMac_AssociateInd                                              
00015ce1  MtMac_AsyncCnf                                                  
0001625f  MtMac_AsyncInd                                                  
00008549  MtMac_BeaconNotifyInd                                           
00013431  MtMac_CommStatusInd                                             
00012847  MtMac_DataCnf                                                   
00016267  MtMac_DataInd                                                   
00014b8b  MtMac_DisassociateCnf                                           
000147c9  MtMac_DisassociateInd                                           
00014ddf  MtMac_OrphanInd                                                 
000157f5  MtMac_PollCnf                                                   
00014e05  MtMac_PollInd                                                   
0001580f  MtMac_PurgeCnf                                                  
0000c0cd  MtMac_ScanCnf                                                   
00015cf5  MtMac_StartCnf                                                  
00013973  MtMac_SyncLossInd                                               
00057231  MtMac_commandProcessing                                         
00005eb5  MtSys_commandProcessing                                         
00013a69  MtSys_resetReq                                                  
0000883d  MtUtil_commandProcessing                                        
00016081  NOROM_CPUcpsid                                                  
0001608d  NOROM_CPUcpsie                                                  
000162b1  NOROM_CPUdelay                                                  
000154e5  NOROM_ChipInfo_GetChipFamily                                    
00010d15  NOROM_ChipInfo_GetChipType                                      
00013255  NOROM_ChipInfo_GetHwRevision                                    
000158c5  NOROM_ChipInfo_GetPackageType                                   
00015501  NOROM_FlashProgram                                              
0001551d  NOROM_FlashSectorErase                                          
0000f305  NOROM_OSCHF_AttemptToSwitchToXosc                               
00010f31  NOROM_OSCHF_SwitchToRcOscTurnOffXosc                            
00014e29  NOROM_OSCHF_TurnOnXosc                                          
00013535  NOROM_OSC_HPOSCRelativeFrequencyOffsetGet                       
00012279  NOROM_PRCMPowerDomainsAllOff                                    
00012895  NOROM_PRCMPowerDomainsAllOn                                     
000108bd  NOROM_RFCAnaDivTxOverride                                       
00015d09  NOROM_RFCCpeIntGetAndClear                                      
0000ab9b  NOROM_RFCCpePatchReset                                          
00014e4d  NOROM_RFCDoorbellSendTo                                         
00015f0d  NOROM_RFCHwIntGetAndClear                                       
00014bb3  NOROM_RFCOverrideSearch                                         
00016351  NOROM_RFCOverrideUpdate                                         
00012d05  NOROM_RFCSynthPowerDown                                         
0000d571  NOROM_SetupTrimDevice                                           
000140b1  NOROM_SysCtrlIdle                                               
000090bd  NOROM_SysCtrlStandby                                            
000119af  NPIFrame_frameMsg                                               
00015151  NPIRxBuf_GetRxBufCount                                          
000140e5  NPIRxBuf_ReadFromRxBuf                                          
0000e1fd  NPITLUART_initializeTransport                                   
00016099  NPITL_checkNpiBusy                                              
00015191  NPITL_getRxBufLen                                               
00014351  NPITL_readTL                                                    
0000f855  NPITL_writeTL                                                   
00004c85  NPITask_Fxn                                                     
000122cd  NPITask_createTask                                              
200012e4  NPITask_events                                                  
20002578  NVOCMP_nvHandle                                                 
2000254b  NVOCMP_size                                                     
0001626f  NVSCC26XX_close                                                 
000162b7  NVSCC26XX_control                                               
000143b1  NVSCC26XX_erase                                                 
00002120  NVSCC26XX_fxnTable                                              
0001558d  NVSCC26XX_getAttrs                                              
00012375  NVSCC26XX_init                                                  
000155a9  NVSCC26XX_lock                                                  
0000fc6d  NVSCC26XX_open                                                  
00013299  NVSCC26XX_read                                                  
000160b1  NVSCC26XX_unlock                                                
00009ef9  NVSCC26XX_write                                                 
000023c8  NVS_config                                                      
00002400  NVS_count                                                       
00002478  NVS_defaultParams                                               
000161fd  NVS_erase                                                       
00016207  NVS_getAttrs                                                    
000147f5  NVS_init                                                        
00012d95  NVS_open                                                        
00016211  NVS_read                                                        
00016009  NVS_write                                                       
00015431  OsalPort_buildUint32                                            
000112d1  OsalPort_clearEvent                                             
00015829  OsalPort_enterCS                                                
00013575  OsalPort_free                                                   
00015c0d  OsalPort_leaveCS                                                
0000eead  OsalPort_malloc                                                 
000151f1  OsalPort_memcmp                                                 
000150ad  OsalPort_msgAllocate                                            
00015211  OsalPort_msgDeallocate                                          
00014711  OsalPort_msgDequeue                                             
0001473f  OsalPort_msgEnqueue                                             
000139b1  OsalPort_msgEnqueueMax                                          
000142ed  OsalPort_msgExtract                                             
0001590d  OsalPort_msgPush                                                
00011a69  OsalPort_msgReceive                                             
0001292d  OsalPort_msgSend                                                
00011335  OsalPort_pwrmgrTaskState                                        
00011001  OsalPort_registerTask                                           
00011ac5  OsalPort_setEvent                                               
0000ef39  OsalPort_setTimer                                               
000160c9  OsalPort_stopTimer                                              
00015f1d  PINCC26XX_getPinCount                                           
0000243c  PINCC26XX_hwAttrs                                               
000143e1  PINCC26XX_setMux                                                
0001544f  PIN_close                                                       
00007151  PIN_init                                                        
0000d36d  PIN_open                                                        
00011b21  PIN_remove                                                      
00013da5  PIN_setConfig                                                   
00012ddd  PIN_setOutputEnable                                             
00013b1d  PIN_setOutputValue                                              
00012e25  PowerCC26X2_RCOSC_clockFunc                                     
00010521  PowerCC26X2_auxISR                                              
00015d1d  PowerCC26X2_calibrate                                           
000022dc  PowerCC26X2_config                                              
00011f0d  PowerCC26X2_initiateCalibration                                 
2000206c  PowerCC26X2_module                                              
00015843  PowerCC26XX_calibrate                                           
000135b5  PowerCC26XX_isStableXOSC_HF                                     
000155e1  PowerCC26XX_schedulerDisable                                    
000155fd  PowerCC26XX_schedulerRestore                                    
0000c5a9  PowerCC26XX_standbyPolicy                                       
20003d08  PowerCC26XX_swiKey                                              
00012e6d  PowerCC26XX_switchXOSC_HF                                       
20003d0c  PowerCC26XX_taskKey                                             
000160d5  Power_getConstraintMask                                         
000160e1  Power_getDependencyCount                                        
0001546d  Power_getTransitionLatency                                      
00015925  Power_idleFunc                                                  
000089b1  Power_init                                                      
00014c2d  Power_registerNotify                                            
00014411  Power_releaseConstraint                                         
0000c8b5  Power_releaseDependency                                         
00014441  Power_setConstraint                                             
0000cd2d  Power_setDependency                                             
00007d71  Power_sleep                                                     
00015251  Power_unregisterNotify                                          
2000010c  RAM_MAC_BASE_ADDR                                               
000023d4  RFCC26XX_hwAttrs                                                
20002ce4  RFCC26XX_schedulerPolicy                                        
00015d31  RF_Params_init                                                  
00015d45  RF_RatConfigCompare_init                                        
00016277  RF_RatConfigOutput_init                                         
00015619  RF_ScheduleCmdParams_init                                       
00011f65  RF_TxPowerTable_findValue                                       
0001593d  RF_cancelCmd                                                    
0000a509  RF_close                                                        
20001bcc  RF_cmdFsRx                                                      
20001be4  RF_cmdFsTx                                                      
00000630  RF_cmdFs_2gfsk100kbps154g868mhz                                 
00000618  RF_cmdFs_2gfsk100kbps154g915mhz                                 
00000648  RF_cmdFs_2gfsk200kbps154g                                       
00000660  RF_cmdFs_2gfsk500kbps154g                                       
00000600  RF_cmdFs_2gfsk50kbps154g                                        
000005d0  RF_cmdFs_ieee154                                                
00000678  RF_cmdFs_slr5kbps2gfsk                                          
20001c6c  RF_cmdIEEECsma                                                  
20001d0c  RF_cmdIEEERx                                                    
20001bfc  RF_cmdIEEETx                                                    
00000738  RF_cmdIeeeCsma_ieee154                                          
000005a4  RF_cmdIeeeRxAck_ieee154                                         
00000a28  RF_cmdIeeeRx_ieee154                                            
000005e8  RF_cmdIeeeTx_ieee154                                            
20001b98  RF_cmdNop                                                       
20001ba8  RF_cmdNopFg                                                     
20001c14  RF_cmdPropCs                                                    
20001c30  RF_cmdPropCsSlotted                                             
000006c8  RF_cmdPropCs_2gfsk100kbps154g868mhz                             
000006ac  RF_cmdPropCs_2gfsk100kbps154g915mhz                             
000006e4  RF_cmdPropCs_2gfsk200kbps154g                                   
00000700  RF_cmdPropCs_2gfsk500kbps154g                                   
00000690  RF_cmdPropCs_2gfsk50kbps154g                                    
0000071c  RF_cmdPropCs_slr5kbps2gfsk                                      
20001cac  RF_cmdPropRadioDivSetup                                         
00000868  RF_cmdPropRadioDivSetup_2gfsk100kbps154g868mhz                  
00000840  RF_cmdPropRadioDivSetup_2gfsk100kbps154g915mhz                  
00000890  RF_cmdPropRadioDivSetup_2gfsk200kbps154g                        
000008b8  RF_cmdPropRadioDivSetup_2gfsk500kbps154g                        
00000818  RF_cmdPropRadioDivSetup_2gfsk50kbps154g                         
000008e0  RF_cmdPropRadioDivSetup_slr5kbps2gfsk                           
20001cdc  RF_cmdPropRxAdv                                                 
00000968  RF_cmdPropRxAdv_2gfsk100kbps154g868mhz                          
00000938  RF_cmdPropRxAdv_2gfsk100kbps154g915mhz                          
00000998  RF_cmdPropRxAdv_2gfsk200kbps154g                                
000009c8  RF_cmdPropRxAdv_2gfsk500kbps154g                                
00000908  RF_cmdPropRxAdv_2gfsk50kbps154g                                 
000009f8  RF_cmdPropRxAdv_slr5kbps2gfsk                                   
20001c8c  RF_cmdPropTxAdv                                                 
00000798  RF_cmdPropTxAdv_2gfsk100kbps154g868mhz                          
00000778  RF_cmdPropTxAdv_2gfsk100kbps154g915mhz                          
000007b8  RF_cmdPropTxAdv_2gfsk200kbps154g                                
000007d8  RF_cmdPropTxAdv_2gfsk500kbps154g                                
00000758  RF_cmdPropTxAdv_2gfsk50kbps154g                                 
000007f8  RF_cmdPropTxAdv_slr5kbps2gfsk                                   
20001c4c  RF_cmdRadioSetup                                                
000005b8  RF_cmdRadioSetup_ieee154                                        
20001bb8  RF_cmdRxAckCmd                                                  
0000bc99  RF_control                                                      
00016355  RF_defaultExecutionPolicy                                       
000121cd  RF_defaultSubmitPolicy                                          
00015d6d  RF_flushCmd                                                     
00015e85  RF_getCmdOp                                                     
0001099d  RF_getCurrentTime                                               
0000ebe5  RF_getInfo                                                      
0001566d  RF_getRssi                                                      
0000f49d  RF_getTxPower                                                   
200027b8  RF_handle                                                       
00006d5d  RF_open                                                         
200027c4  RF_params                                                       
0000bd71  RF_pendCmd                                                      
000160ed  RF_powerConstraintGet                                           
00013e15  RF_powerConstraintRelease                                       
00015689  RF_powerConstraintSet                                           
2000167c  RF_prop_2gfsk100kbps154g868mhz                                  
2000166c  RF_prop_2gfsk100kbps154g915mhz                                  
2000168c  RF_prop_2gfsk200kbps154g                                        
2000169c  RF_prop_2gfsk500kbps154g                                        
2000165c  RF_prop_2gfsk50kbps154g                                         
2000164c  RF_prop_ieee154                                                 
200016ac  RF_prop_slr5kbps2gfsk                                           
00015d81  RF_ratCompare                                                   
00010595  RF_ratDisableChannel                                            
0000d9fd  RF_requestAccess                                                
000162c3  RF_runDirectCmd                                                 
000162c9  RF_runImmediateCmd                                              
00006945  RF_scheduleCmd                                                  
000152f1  RF_setTxPower                                                   
00010609  RF_yield                                                        
00000a64  ROM_constStruct                                                 
00001fe8  ROM_externFuncPtrs                                              
200022f0  ROM_stateStruct                                                 
000135f5  Random_getNumber                                                
00010a0d  Random_seedAutomatic                                            
00012015  ResetISR                                                        
00015e97  RingBuf_construct                                               
00013635  RingBuf_get                                                     
00013185  RingBuf_put                                                     
UNDEFED   SHT$$INIT_ARRAY$$Base                                           
UNDEFED   SHT$$INIT_ARRAY$$Limit                                          
0001484d  SemaphoreP_constructBinary                                      
00014879  SemaphoreP_createBinary                                         
000160f9  SemaphoreP_delete                                               
00016359  SemaphoreP_destruct                                             
00015ea9  SemaphoreP_pend                                                 
0001635d  SemaphoreP_post                                                 
00015da9  StructRingBuf_construct                                         
000129c5  StructRingBuf_get                                               
00016025  StructRingBuf_isFull                                            
0001241d  StructRingBuf_put                                               
00015f4d  SwiP_Params_init                                                
00012471  SwiP_construct                                                  
00016361  SwiP_destruct                                                   
00016365  SwiP_disable                                                    
00016369  SwiP_getTrigger                                                 
0001636d  SwiP_or                                                         
1002db61  SwiP_restore                                                    
0001596d  SwiP_setPriority                                                
00015dbd  TRNG_close                                                      
0001067d  TRNG_construct                                                  
0000233c  TRNG_defaultParams                                              
0000ce9d  TRNG_generateEntropy                                            
00011fbd  TRNG_init                                                       
0000fa65  UARTCC26XX_close                                                
00011399  UARTCC26XX_control                                              
00002148  UARTCC26XX_fxnTable                                             
00009611  UARTCC26XX_hwiIntFxn                                            
0001627f  UARTCC26XX_init                                                 
00008c91  UARTCC26XX_open                                                 
00009dbd  UARTCC26XX_read                                                 
00012a11  UARTCC26XX_readCancel                                           
000162cf  UARTCC26XX_readPolling                                          
000115ed  UARTCC26XX_swiIntFxn                                            
0000b9fd  UARTCC26XX_write                                                
0000ea31  UARTCC26XX_writeCancel                                          
000162d5  UARTCC26XX_writePolling                                         
0001599d  UART_Params_init                                                
000023e0  UART_config                                                     
0001621b  UART_control                                                    
00002402  UART_count                                                      
000021e8  UART_defaultParams                                              
00013321  UART_init                                                       
000136b5  UART_open                                                       
00016225  UART_read                                                       
0001622f  UART_write                                                      
00012eb5  UtilTimer_construct                                             
000159b5  UtilTimer_isActive                                              
00016371  UtilTimer_start                                                 
00016375  UtilTimer_stop                                                  
00016287  Util_breakUint32                                                
00016105  Util_bufferUint16                                               
00013cc1  Util_bufferUint32                                               
00016111  Util_parseUint16                                                
00015c39  Util_parseUint32                                                
00000000  __ASM__                                                         
0000009f  __ISA__                                                         
000000b2  __PLAT__                                                        
20014000  __STACK_END                                                     
00000560  __STACK_SIZE                                                    
20014000  __STACK_TOP                                                     
000000d9  __TARG__                                                        
00016b40  __TI_CINIT_Base                                                 
00016b70  __TI_CINIT_Limit                                                
00016b08  __TI_Handler_Table_Base                                         
00016b14  __TI_Handler_Table_Limit                                        
0000da9d  __TI_auto_init                                                  
000110d1  __TI_decompress_lzss                                            
00016033  __TI_decompress_none                                            
ffffffff  __TI_pprof_out_hndl                                             
ffffffff  __TI_prof_data_size                                             
ffffffff  __TI_prof_data_start                                            
00016650  __TI_static_base__                                              
0001614d  __TI_zero_init                                                  
000000ff  __TRDR__                                                        
00011207  __aeabi_idiv0                                                   
00011207  __aeabi_ldiv0                                                   
00010c35  __aeabi_ldivmod                                                 
00015b1d  __aeabi_lmul                                                    
000101dd  __aeabi_memclr                                                  
000101dd  __aeabi_memclr4                                                 
000101dd  __aeabi_memclr8                                                 
0000e0c5  __aeabi_memcpy                                                  
0000e0c5  __aeabi_memcpy4                                                 
0000e0c5  __aeabi_memcpy8                                                 
000101df  __aeabi_memset                                                  
000101df  __aeabi_memset4                                                 
000101df  __aeabi_memset8                                                 
00013875  __aeabi_uidiv                                                   
00013875  __aeabi_uidivmod                                                
0000e623  __aeabi_uldivmod                                                
ffffffff  __binit__                                                       
ffffffff  __c_args__                                                      
00057fa8  __ccfg                                                          
20013aa0  __stack                                                         
000159cd  _args_main                                                      
00012015  _c_int00                                                        
20002b58  _hposcCoeffs                                                    
20002ccc  _lock                                                           
0000c5a7  _nop                                                            
0001611d  _register_lock                                                  
00016129  _register_unlock                                                
20002cd0  _unlock                                                         
0000192e  aesccmCC26XXHWAttrs                                             
20003c04  aesccmCC26XXObjects                                             
20002914  appEvents                                                       
20002924  appSem                                                          
2000290c  appTaskId                                                       
0000d2bf  assertHandler                                                   
20002d71  bInSwi                                                          
ffffffff  binit                                                           
00011951  convertTxOptions                                                
0001585d  copyApiMacAddrToMacAddr                                         
00012a5d  copy_in                                                         
00015311  crc_update                                                      
200029c8  csmPhy                                                          
2000344c  dcBucket                                                        
20003420  dcCritical                                                      
2000341c  dcLimited                                                       
2000342c  dcPtr                                                           
20003424  dcRegulated                                                     
20003418  dcStatus                                                        
20003428  dcTimeUsed                                                      
200038ce  driverlib_release_0_59146                                       
20001de1  ebPayloadData                                                   
20001d4b  ebPayloadLen                                                    
20001d62  ebPieData                                                       
20001d4a  ebPieLen                                                        
20001e60  ebrPieData                                                      
20001d4c  ebrPieLen                                                       
2000314c  enhancedAckBuf                                                  
200025c0  fhObject                                                        
00002424  fhSupFrameTypes                                                 
2000254a  gAction                                                         
20013aa0  heapEnd                                                         
20003d32  heapStart                                                       
20001ef4  heapmgrMemFreeError                                             
20001ef0  heapmgrMemFreeTotal                                             
200012ec  incomingTXEventAppCBFunc                                        
200012c6  incomingTXReroute                                               
20001d48  joinPolicy                                                      
2000240c  lastPostCmd                                                     
20002c80  lastRatChanA                                                    
20002c81  lastRatChanB                                                    
20002b44  macAckDbg                                                       
200038cf  macAckTxActive                                                  
20002b7c  macActionSet                                                    
200023fc  macAddrSize                                                     
10036ba1  macAllocTxBuffer                                                
10037699  macApiAssociateReq                                              
10036399  macApiAssociateRsp                                              
10039e0d  macApiBadState                                                  
0000d419  macApiBeaconStartReq                                            
10036ef5  macApiDataReq                                                   
10039955  macApiDisassociateReq                                           
100360fd  macApiOrphanRsp                                                 
10039b81  macApiPending                                                   
10037ab9  macApiPollReq                                                   
10035eb1  macApiPurgeReq                                                  
0001084b  macApiPwrOnReq                                                  
1003a2ad  macApiScanReq                                                   
0000c671  macApiStartReq                                                  
10034bcd  macApiSyncReq                                                   
10039e25  macApiUnsupported                                               
10039a99  macApiWSAsyncReq                                                
10037c99  macAssocDataReq                                                 
10037b25  macAssocDataReqComplete                                         
1003792d  macAssocDataRxInd                                               
10037ced  macAssocFailed                                                  
10037db5  macAssocFrameResponseTimeout                                    
10037e85  macAssocRxDisassoc                                              
10037d79  macAssociateCnf                                                 
00001b90  macAssociatingSt                                                
0000242c  macAuthTagLen                                                   
100371e1  macAutoPendAddSrcMatchTableEntry                                
10036fc5  macAutoPendMaintainSrcMatchTable                                
0000cc71  macAutoPoll                                                     
10039e69  macBcTimerHandler                                               
20003b3c  macBeacon                                                       
10034a25  macBeaconBattLifeCallback                                       
100355dd  macBeaconCheckSched                                             
10034715  macBeaconCheckStartTime                                         
0000d6c1  macBeaconCheckTxTime                                            
10034921  macBeaconClearIndirect                                          
20003910  macBeaconCoord                                                  
20003ce4  macBeaconCoordAction1                                           
10034a01  macBeaconCoordReset                                             
200039f0  macBeaconDevice                                                 
20003c84  macBeaconDeviceAction                                           
10035575  macBeaconInit                                                   
20002bc0  macBeaconMargin                                                 
20002940  macBeaconPayload                                                
1003495d  macBeaconPeriodCallback                                         
100346a1  macBeaconPrepareCallback                                        
10035535  macBeaconRequeue                                                
100355a9  macBeaconReset                                                  
100348e1  macBeaconSchedRequested                                         
100349d5  macBeaconSetPrepareTime                                         
10035369  macBeaconSetSched                                               
100347ed  macBeaconSetupBroadcast                                         
10035421  macBeaconSetupCap                                               
10034545  macBeaconStartContinue                                          
10035229  macBeaconStartFrameResponseTimer                                
10035289  macBeaconStopTrack                                              
10035065  macBeaconSyncLoss                                               
10034781  macBeaconTxCallback                                             
0000db3d  macBlacklistChecking                                            
10035355  macBroadcastPendCallback                                        
10037549  macBuildAssociateReq                                            
1003560d  macBuildAssociateRsp                                            
1003576d  macBuildBeacon                                                  
100394f1  macBuildBeaconNotifyInd                                         
10038c1d  macBuildCommonReq                                               
0000a169  macBuildDataFrame                                               
10038f61  macBuildDisassociateReq                                         
0000d001  macBuildEBeaconNotifyInd                                        
00004091  macBuildHeader                                                  
0000bbbd  macBuildHeaderIes                                               
100380d9  macBuildPayloadCoexistIe                                        
10037ee9  macBuildPayloadIes                                              
10035bb5  macBuildPendAddr                                                
10035d4d  macBuildRealign                                                 
10039855  macBuildWSAsyncMsg                                              
100392e1  macBuildWSAsyncReq                                              
0001206d  macCanSleep                                                     
000023b0  macCbackEventTbl                                                
100385f1  macCbackForEvent                                                
0000ec75  macCcmDecrypt                                                   
0000f051  macCcmEncrypt                                                   
0000d8b5  macCcmStarInverseTransform                                      
0000be49  macCcmStarTransform                                             
20002c70  macCfg                                                          
10037361  macCheckIndPacket                                               
100350ed  macCheckPendAddr                                                
00015877  macCheckPhyMode                                                 
00013365  macCheckPhyRate                                                 
100374e1  macCheckSched                                                   
0000236c  macCmdBufSize                                                   
000020e8  macCmdIncludeFHIe                                               
00002403  macCmdLen                                                       
100393ed  macCommStatusInd                                                
10039c95  macConflictSyncLossInd                                          
20003a54  macCoord                                                        
20003cec  macCoordAction1                                                 
20003bcc  macCoordAction2                                                 
20003c94  macCoordAction3                                                 
10039bc1  macCoordAddrCmp                                                 
10039a41  macCoordDestAddrCmp                                             
0000ca35  macCoordReset                                                   
00002030  macCryptoDriverTable                                            
20003d10  macCryptoDrvTblPtr                                              
20002b40  macCsmaRtcTimerId                                               
000159fd  macCsmaTimerExpiry                                              
20003ca4  macData                                                         
200029c4  macDataBeaconRequeue                                            
200029bc  macDataCheckSched                                               
200029c0  macDataCheckTxTime                                              
200029ac  macDataRequeueIndirect                                          
10037279  macDataReset                                                    
200029b0  macDataRxBeaconCritical                                         
100373b9  macDataRxInd                                                    
10037455  macDataRxMemAlloc                                               
10037515  macDataRxMemFree                                                
100374c1  macDataSend                                                     
200029b8  macDataSetSched                                                 
200029b4  macDataTxBeaconComplete                                         
10037079  macDataTxComplete                                               
20003cb4  macDataTxDelay                                                  
10037529  macDataTxDelayCallback                                          
1003712d  macDataTxEnqueue                                                
200029a8  macDataTxIndirect                                               
100368cd  macDataTxSend                                                   
100374fd  macDataTxTimeAvailable                                          
10039d61  macDefaultAction                                                
10039ae9  macDestAddrCmp                                                  
10039b35  macDestSAddrCmp                                                 
20003a80  macDevice                                                       
20003984  macDeviceAction1                                                
20003c5c  macDeviceAction2                                                
000131cb  macDeviceDescriptorLookup                                       
100377a1  macDeviceReset                                                  
100397c9  macDisassocComplete                                             
000106f1  macDutyCycleByteToUSec                                          
00012f8d  macDutyCycleCheck                                               
00012519  macDutyCycleUpdateTransmission                                  
0000ab9d  macEdScanISR                                                    
1003871d  macExecute                                                      
000144a1  macFindVendorSpecificIe                                         
10037479  macFrameDuration                                                
1003749d  macFrameDurationIeee                                            
100372f5  macFrameDurationSubG                                            
2000244c  macFrmFilter                                                    
20002c84  macFsCmdActive                                                  
10039eb9  macGetCSMPhy                                                    
10039c35  macGetCoordAddress                                              
1003bb81  macGetEUI                                                       
1003ba75  macGetEUIIndex                                                  
10039d81  macGetMyAddrMode                                                
0000b499  macGetRFCmdDuration                                             
00015331  macGetRadioState                                                
00011831  macGetRadioTxPowerReg                                           
1003a29d  macIEEEGetPhyDesc                                               
0000235c  macIEEEPhyTable                                                 
00001c02  macIdleSt                                                       
1003842b  macIeCoexistIePresent                                           
100384e5  macIeFreeList                                                   
00008231  macIncomingFrameSecurity                                        
00007bd5  macIncomingFrameSecurityMaterialRetrieval                       
0001256d  macIncomingKeyUsagePolicyChecking                               
100352cd  macIncomingNonSlottedTx                                         
0000e875  macIncomingSecurityLevelChecking                                
100358c5  macIndirectExpire                                               
100361e5  macIndirectMark                                                 
10036171  macIndirectRequeueFrame                                         
10035e09  macIndirectSend                                                 
10036085  macIndirectTxFrame                                              
10039e7d  macIsCsmOperational                                             
0000f635  macKeyDescriptorLookup                                          
00002474  macKeySourceLen                                                 
0000a2a1  macLowLevelBufferInit                                           
000141b5  macLowLevelDiags                                                
00016159  macLowLevelReset                                                
00016165  macLowLevelResume                                               
00012b41  macLowLevelYield                                                
200024a8  macMRFSKGenPhyTable                                             
1003a115  macMRFSKGetPhyDesc                                              
00001f50  macMRFSKStdPhyTable                                             
20003cd0  macMain                                                         
10038899  macMainReserve                                                  
10038791  macMainReset                                                    
100388e1  macMainSetTaskId                                                
00010ca3  macMcuBitReverse                                                
00014ca5  macMcuInit                                                      
00015891  macMcuLongDiv                                                   
00015dd1  macMcuOverflowCapture                                           
0000fced  macMcuOverflowSetCompare                                        
0000f6bd  macMcuOverflowSetPeriod                                         
00016243  macMcuRandomByte                                                
000156a5  macMcuTimerCapture                                              
20003cfa  macMgmt                                                         
20003a24  macMgmtAction1                                                  
20003c70  macMgmtAction2                                                  
0000caf5  macMgmtReset                                                    
000111a1  macMlmeSubIePresent                                             
10039ec1  macNoAction                                                     
000156c1  macNopBackoffTimerExpiry                                        
0000b0d1  macOutgoingFrameKeyDescRetrieval                                
0000b66d  macOutgoingFrameSecurity                                        
10034999  macOutgoingNonSlottedTx                                         
10037ed5  macPanConflictComplete                                          
20003cfb  macPanCoordinator                                               
1003818d  macParseHeaderIes                                               
1003827d  macParsePayloadIes                                              
100364a9  macPendAddrLen                                                  
20003d28  macPhyChannel                                                   
200027bc  macPhyTxPower                                                   
200035c8  macPib                                                          
0001637d  macPibCheckByPatch                                              
00001a88  macPibDefaults                                                  
000154a9  macPibIndex                                                     
1003a239  macPibReset                                                     
00001836  macPibTbl                                                       
10037e3d  macPollCnf                                                      
10037b91  macPollDataReqComplete                                          
100379b1  macPollDataRxInd                                                
10037bed  macPollFrameResponseTimeout                                     
10037e61  macPollRxAssocRsp                                               
10037de9  macPollRxDisassoc                                               
00001c74  macPollingSt                                                    
20002ac0  macPrevPeriodRatCount                                           
20003d29  macPwr                                                          
00016171  macPwrReset                                                     
00005765  macPwrVote                                                      
20002c44  macRadioAckFrame                                                
20002c3a  macRadioAckIeeeFrame                                            
00016381  macRadioComputeLQI                                              
000043a9  macRadioCsmaTxCb                                                
000156dd  macRadioEnergyDetectStop                                        
000156f9  macRadioInit                                                    
0000a3d9  macRadioInitIeee                                                
00006519  macRadioInitSubG                                                
000099f9  macRadioLbtTxCb                                                 
0001301d  macRadioNeedAdjustPower                                         
00016243  macRadioRandomByte                                              
00011c91  macRadioSetChannel                                              
00011ced  macRadioSetChannelRx                                            
000141e9  macRadioSetIEEEAddr                                             
00012709  macRadioSetPanCoordinator                                       
00014955  macRadioSetPanID                                                
00010d13  macRadioSetRE                                                   
00014981  macRadioSetShortAddr                                            
00015a15  macRadioSetTxPower                                              
0000dbdd  macRadioStartScan                                               
00013065  macRadioStopScan                                                
00014f01  macRadioSwInit                                                  
00016385  macRadioTxBOBoundary                                            
00010ded  macRadioTxBackoffBoundary                                       
0000f0dd  macRadioTxEnhAckCb                                              
00015715  macRadioTxGo                                                    
00012b8d  macRadioTxHandleAck                                             
00008b25  macRadioTxPrepCsmaUnslotted                                     
0000d959  macRadioTxPrepLbt                                               
000120c5  macRadioTxRequestTxAck                                          
0000de55  macRadioUpdateChannel                                           
0000def1  macRadioUpdateChannelRx                                         
0000d0b1  macRadioUpdateTxPower                                           
0000fd6d  macRadioWakeupCb                                                
20002d73  macRadioYielded                                                 
0000e909  macRatCb_A                                                      
00013735  macRatCb_B                                                      
0001421d  macRatDisableChannelB                                           
0001617d  macRegisterSfdDetect                                            
20002c8a  macReqAccErrCnt                                                 
20002c86  macReqAccessCnt                                                 
20002c88  macReqAccessTimeCnt                                             
000113fd  macRequestBackoff                                               
20003be8  macReset                                                        
00001e38  macRfDriverTable                                                
20002408  macRfDrvTblPtr                                                  
00015731  macRxAckTxDoneCallback                                          
20003d2a  macRxActive                                                     
10037871  macRxAssocRsp                                                   
100362b1  macRxAssociateReq                                               
00016389  macRxBackoffHandler                                             
00015a2d  macRxBackoffTimerExpiry                                         
0000b2bd  macRxBeacon                                                     
000076e5  macRxBeaconCritical                                             
10036419  macRxBeaconReq                                                  
00003639  macRxCb                                                         
100373fd  macRxCheckMACPendingCallback                                    
1003742d  macRxCheckPendingCallback                                       
20002c82  macRxCmdActive                                                  
10036cd9  macRxCompleteCallback                                           
10037a35  macRxCoordRealign                                               
20003ab8  macRxDataEntryOffset                                            
20003acc  macRxDataEntryQueue                                             
10035f55  macRxDataReq                                                    
00012759  macRxDisable                                                    
100398d9  macRxDisassoc                                                   
00014ccd  macRxEnable                                                     
20003d2b  macRxEnableFlags                                                
000054e1  macRxEnhancedBeaconReq                                          
20003aac  macRxFilter                                                     
000569b9  macRxFrameIsr                                                   
00011139  macRxHaltCleanup                                                
000144d1  macRxHardDisable                                                
00013775  macRxNokIsr                                                     
00015351  macRxOff                                                        
0000df8d  macRxOffRequest                                                 
000100e5  macRxOn                                                         
00015a45  macRxOnRequest                                                  
10036355  macRxOrphan                                                     
20003d2c  macRxOutgoingAckFlag                                            
2000243c  macRxOutputIeee                                                 
20002430  macRxOutputSubG                                                 
100364c5  macRxPanConflict                                                
20002c85  macRxPreempted                                                  
00016189  macRxSequenceNum                                                
00014501  macRxSoftDisable                                                
000149ad  macRxSoftEnable                                                 
20003d14  macRxSymbol                                                     
20003748  macScan                                                         
20003c1c  macScanAction                                                   
1003a931  macScanCnfInit                                                  
1003a839  macScanComplete                                                 
1003a96d  macScanFailedInProgress                                         
000049a5  macScanNextChan                                                 
00009765  macScanRxBeacon                                                 
0000b751  macScanRxCoordRealign                                           
1003a8b9  macScanStartTimer                                               
00001ce6  macScanningSt                                                   
10039e91  macSecCpy                                                       
200038d0  macSecurityPib                                                  
1003b199  macSecurityPibIndex                                             
1003ac6d  macSecurityPibReset                                             
00001ea4  macSecurityPibTbl                                               
2000013c  macSem                                                          
10038501  macSendDataMsg                                                  
00012bd9  macSendFsCmd                                                    
100386a1  macSendMsg                                                      
000022ac  macSendMsgBufSize                                               
000023bc  macSendMsgDataSize                                              
000062fd  macSendReceiveCmdIeee                                           
00006731  macSendReceiveCmdSubG                                           
00011d49  macSetDefaultsByPatch                                           
000086c5  macSetDefaultsByPhyID                                           
10039bfd  macSetDefaultsByRE                                              
10038861  macSetEvent                                                     
10038845  macSetEvent16                                                   
1003753d  macSetSched                                                     
0000e99d  macSetupFsCmd                                                   
0000a749  macSetupRATChanCompare                                          
0000b585  macSetupReceiveCmd                                              
20002410  macSfdDetectCback                                               
20002d90  macSleepState                                                   
20002abc  macSpecUsecsPerSymbol                                           
20002478  macSrcExtAddrList                                               
200009e4  macSrcMatchIsAckAllPending                                      
20002d72  macSrcMatchIsEnabled                                            
200009e5  macSrcResIndex                                                  
2000245c  macSrcShortAddrList                                             
10034895  macStartBeaconPrepareCallback                                   
10035ad5  macStartBegin                                                   
10035311  macStartBroadcastPendTimer                                      
100363d9  macStartComplete                                                
10036309  macStartContinue                                                
10037d35  macStartFrameResponseTimer                                      
10037e15  macStartResponseTimer                                           
100359d5  macStartSetParams                                               
00001d58  macStartingSt                                                   
100388b1  macStateIdle                                                    
1003887d  macStateIdleOrPolling                                           
100388c9  macStateScanning                                                
20002c4c  macStateTbl                                                     
0000d161  macStopCmd                                                      
00015a75  macSymbolBCTimerPowerUp                                         
00014531  macSymbolTimerBCWakeUp                                          
00014251  macSymbolTimerCount                                             
00014561  macSymbolTimerICallTimerCback                                   
20003d2d  macSymbolTimerImpending                                         
0000f745  macSymbolTimerInit                                              
00014f49  macSymbolTimerPowerDown                                         
00015a8d  macSymbolTimerRestore                                           
20002ac4  macSymbolTimerRollover                                          
00011461  macSymbolTimerRolloverCallback                                  
000149d9  macSymbolTimerSetRollover                                       
000137f5  macSymbolTimerSetTrigger                                        
00015aa5  macSymbolTimerSetTriggerRollover                                
20002ac8  macSymbolTimerTrigger                                           
0000c411  macSymbolTimerTriggerCallback                                   
10034e8d  macSyncTimeoutCallback                                          
20000194  macTask                                                         
20003d2e  macTaskId                                                       
0000d4c5  macTaskInit                                                     
20002d6c  macTasksEvents                                                  
00014f6d  macTimer                                                        
20003d18  macTimerActive                                                  
000114c5  macTimerAddTimer                                                
00013e4d  macTimerAligned                                                 
00011891  macTimerCancel                                                  
00014591  macTimerCheckUnAlignedQ                                         
000118f1  macTimerGetNextTimer                                            
00014251  macTimerGetTime                                                 
00013e85  macTimerInit                                                    
200029d0  macTimerNewRollover                                             
0000e029  macTimerRealign                                                 
00013c0d  macTimerRecalcUnaligned                                         
00015785  macTimerRemoveTimer                                             
200029cc  macTimerRollover                                                
00002070  macTimerRolloverValue                                           
00010349  macTimerSetRollover                                             
000127a9  macTimerStart                                                   
00015abd  macTimerSyncRollover                                            
000130ad  macTimerUpdActive                                               
0000fae9  macTimerUpdateSymbolTimer                                       
00010e59  macTrackPeriodCallback                                          
0000ed05  macTrackStartCallback                                           
0000d769  macTrackTimeoutCallback                                         
00014cf5  macTxAbortIsr                                                   
00015731  macTxAckIsr                                                     
00013ebd  macTxAckNotReceivedCallback                                     
000125c1  macTxAckReceivedCallback                                        
20003d2f  macTxActive                                                     
000162e1  macTxBackoffHandler                                             
00015ad5  macTxBackoffTimerExpiry                                         
20002b36  macTxBe                                                         
10034421  macTxBeaconCompleteCallback                                     
0000b835  macTxChannelBusyCallback                                        
20002c83  macTxCmdActive                                                  
100364f9  macTxCompleteCallback                                           
20002b3e  macTxCsmaBackoffDelay                                           
10039e3d  macTxCsmaDelay                                                  
00013c49  macTxDecrypt                                                    
00010ec5  macTxDoneCallback                                               
000046b9  macTxFrame                                                      
0000237a  macTxFrameFailed                                                
00013ef5  macTxFrameIsr                                                   
00015391  macTxFrameRetransmit                                            
00002388  macTxFrameSuccess                                               
20002b37  macTxGpInterframeDelay                                          
00014a05  macTxRequestCsmaRtcDelay                                        
20002d70  macTxSlottedDelay                                               
20002b34  macTxSlottedDelayFactor                                         
20002414  macTxTimestamp                                                  
000133a9  macTxTimestampCallback                                          
20002b35  macTxType                                                       
00013835  macTxUpdateIE                                                   
20003d30  macUnitBackoffPeriod                                            
10039ea5  macUpdateCsmPhyParam                                            
10038349  macUpdateHeaderIEPtr                                            
1003b9f1  macUpdatePanId                                                  
10038489  macUpdatePayloadIEPtr                                           
20000ee4  macUser0Cfg                                                     
10039da1  macWSAsyncCnf                                                   
00015aed  macWrapper8ByteUnused                                           
00002dc1  macWrapperAddDevice                                             
00007331  macWrapperAddKeyInitFCtr                                        
00008df5  macWrapperDeleteAllDevices                                      
00007f09  macWrapperDeleteDevice                                          
00007891  macWrapperDeleteKeyAndAssociatedDevices                         
1003c6e9  macWrapperGetDefaultSourceKey                                   
100387f9  mac_msg_deallocate                                              
0001211d  main                                                            
20002d78  main_func_sp                                                    
00014f91  memcmp                                                          
0000e0c5  memcpy                                                          
000101e5  memset                                                          
00002318  msacbackSizeTable                                               
20002a68  mtProcessIncoming                                               
20000ef8  myTask                                                          
20000fa4  myTaskStack                                                     
200012c4  npiAppEntityID                                                  
20002a64  npiEID                                                          
20002a65  npiSID                                                          
200012e0  npiSemHandle                                                    
2000135c  npiTaskStack                                                    
20002c8c  numRfCmd                                                        
20002c8d  numRxCmd                                                        
20002c8e  numRxPostCmd                                                    
20002b3d  numTx                                                           
20003d1c  nvsCC26XXObjects                                                
000162e7  osalHeapAllocFxn                                                
000162ed  osalHeapFreeFxn                                                 
00012c25  osalHeapGetStatsFxn                                             
00010161  osalHeapInitFxn                                                 
00016399  osalHeapIsBlockingFxn                                           
20002c98  pClockHandleEDScan                                              
20000138  pMacCbackCheckPending                                           
20000134  pMacCbackQueryRetransmit                                        
200029a4  pMacDataTx                                                      
20002c40  pMacEnhancedAck                                                 
20002418  pMacRadioConfig                                                 
200027b4  pMaxPower                                                       
20002824  pOverrides_2gfsk100kbps154g868mhz                               
20002860  pOverrides_2gfsk100kbps154g915mhz                               
20002ae4  pOverrides_2gfsk200kbps154g                                     
200027e4  pOverrides_2gfsk500kbps154g                                     
20002b0c  pOverrides_2gfsk50kbps154g                                      
20002cb4  pOverrides_ieee154                                              
20002a90  pOverrides_slr5kbps2gfsk                                        
200027ac  pRfMode                                                         
200027b0  pRfPowerTable                                                   
20003650  pinHandleTable                                                  
20002cf0  pinLowerBound                                                   
20002cec  pinUpperBound                                                   
000150cf  radioComputeED                                                  
20002400  reqAccessAlloc                                                  
00001efc  resourceDB                                                      
00056001  rfSelect                                                        
000148d1  rf_patch_cpe_ieee_802_15_4                                      
000148fd  rf_patch_cpe_prop                                               
20002402  rxCmdHandle                                                     
20003d31  rxFhRsl                                                         
20003aad  rxPromiscuousMode                                               
20003abc  rxRadioBufferPtr                                                
20003ab0  rxSeqNum                                                        
00014a31  sAddrCmp                                                        
00015df9  sAddrCpy                                                        
000157bd  sAddrExtCmp                                                     
00015e0d  sAddrExtCpy                                                     
0000fe6d  scheduleNopWakeupCmd                                            
1002fddb  strlen                                                          
200012f0  structnpiSem                                                    
20001ee0  taskCnt                                                         
20001f04  taskTbl                                                         
20002330  ti_sysbios_BIOS_Module__state__V                                
1002e4e1  ti_sysbios_BIOS_RtsGateProxy_Handle__label__S                   
1002eb79  ti_sysbios_BIOS_RtsGateProxy_Params__init__S                    
1002ec77  ti_sysbios_BIOS_RtsGateProxy_enter__E                           
1002ec7b  ti_sysbios_BIOS_RtsGateProxy_leave__E                           
1002ec9b  ti_sysbios_BIOS_RtsGateProxy_query__E                           
1002ec9b  ti_sysbios_BIOS_RtsGateProxy_query__E                           
000145c1  ti_sysbios_BIOS_atExitFunc__I                                   
00015c4f  ti_sysbios_BIOS_exitFunc__I                                     
1002ea85  ti_sysbios_BIOS_exit__E                                         
1002e9fd  ti_sysbios_BIOS_getCpuFreq__E                                   
1002ea95  ti_sysbios_BIOS_getThreadType__E                                
1002d01b  ti_sysbios_BIOS_linkedWithIncorrectBootLibrary__E               
0001164f  ti_sysbios_BIOS_nullFunc__I                                     
00014fb5  ti_sysbios_BIOS_registerRTSLock__I                              
00014fd9  ti_sysbios_BIOS_removeRTSLock__I                                
000153f1  ti_sysbios_BIOS_rtsLock__I                                      
00015b65  ti_sysbios_BIOS_rtsUnlock__I                                    
1002ea11  ti_sysbios_BIOS_setThreadType__E                                
000145f1  ti_sysbios_BIOS_startFunc__I                                    
1002eaa5  ti_sysbios_BIOS_start__E                                        
0000d571  ti_sysbios_family_arm_cc26xx_Boot_trimDevice                    
00000b4e  ti_sysbios_family_arm_cc26xx_Timer_Module__id__C                
1002e15d  ti_sysbios_family_arm_cc26xx_Timer_Module__startupDone__S       
200023f4  ti_sysbios_family_arm_cc26xx_Timer_Module__state__V             
1002dfa5  ti_sysbios_family_arm_cc26xx_Timer_Module_startup__E            
20002718  ti_sysbios_family_arm_cc26xx_Timer_Object__table__V             
00015411  ti_sysbios_family_arm_cc26xx_Timer_dynamicStub__E               
00000b84  ti_sysbios_family_arm_cc26xx_Timer_funcHookCH1__C               
00000be4  ti_sysbios_family_arm_cc26xx_Timer_funcHookCH2__C               
00015e49  ti_sysbios_family_arm_cc26xx_Timer_getCount64__E                
00013f9d  ti_sysbios_family_arm_cc26xx_Timer_getCurrentTick__E            
1002ec7f  ti_sysbios_family_arm_cc26xx_Timer_getExpiredTicks__E           
00014ffd  ti_sysbios_family_arm_cc26xx_Timer_getMaxTicks__E               
1002ec83  ti_sysbios_family_arm_cc26xx_Timer_getPeriod__E                 
00014621  ti_sysbios_family_arm_cc26xx_Timer_initDevice__I                
1002c709  ti_sysbios_family_arm_cc26xx_Timer_periodicStub__E              
1002dfd1  ti_sysbios_family_arm_cc26xx_Timer_postInit__I                  
00014079  ti_sysbios_family_arm_cc26xx_Timer_setNextTick__E               
1002ec87  ti_sysbios_family_arm_cc26xx_Timer_setPeriod__E                 
000138b5  ti_sysbios_family_arm_cc26xx_Timer_setThreshold__I              
0000feed  ti_sysbios_family_arm_cc26xx_Timer_start__E                     
00000bbc  ti_sysbios_family_arm_cc26xx_Timer_startupNeeded__C             
1002dcf1  ti_sysbios_family_arm_cc26xx_Timer_startup__E                   
2000231c  ti_sysbios_family_arm_cc26xx_TimestampProvider_Module__state__V 
1002e42d  ti_sysbios_family_arm_cc26xx_TimestampProvider_Module_startup__E
00016041  ti_sysbios_family_arm_cc26xx_TimestampProvider_get32__E         
1002dffd  ti_sysbios_family_arm_cc26xx_TimestampProvider_get64__E         
1002eb3d  ti_sysbios_family_arm_cc26xx_TimestampProvider_getFreq__E       
00000d5c  ti_sysbios_family_arm_cc26xx_TimestampProvider_useClockTimer__C 
00000be8  ti_sysbios_family_arm_m3_Hwi_E_NMI__C                           
00000cec  ti_sysbios_family_arm_m3_Hwi_E_alreadyDefined__C                
00000c4c  ti_sysbios_family_arm_m3_Hwi_E_busFault__C                      
00000d74  ti_sysbios_family_arm_m3_Hwi_E_debugMon__C                      
00000d68  ti_sysbios_family_arm_m3_Hwi_E_hardFault__C                     
00000d90  ti_sysbios_family_arm_m3_Hwi_E_hwiLimitExceeded__C              
00000de4  ti_sysbios_family_arm_m3_Hwi_E_memFault__C                      
00000bc0  ti_sysbios_family_arm_m3_Hwi_E_noIsr__C                         
00000b8c  ti_sysbios_family_arm_m3_Hwi_E_reserved__C                      
00000d78  ti_sysbios_family_arm_m3_Hwi_E_svCall__C                        
00000dd4  ti_sysbios_family_arm_m3_Hwi_E_usageFault__C                    
1002e451  ti_sysbios_family_arm_m3_Hwi_Handle__label__S                   
1002ce71  ti_sysbios_family_arm_m3_Hwi_Instance_finalize__E               
1002c79d  ti_sysbios_family_arm_m3_Hwi_Instance_init__E                   
20002d8c  ti_sysbios_family_arm_m3_Hwi_Module_State_0_excActive__A        
20002d7c  ti_sysbios_family_arm_m3_Hwi_Module_State_0_excContext__A       
20002d80  ti_sysbios_family_arm_m3_Hwi_Module_State_0_excStack__A         
00000b4c  ti_sysbios_family_arm_m3_Hwi_Module__id__C                      
20002cfc  ti_sysbios_family_arm_m3_Hwi_Module__root__V                    
1002e185  ti_sysbios_family_arm_m3_Hwi_Module__startupDone__S             
200023c0  ti_sysbios_family_arm_m3_Hwi_Module__state__V                   
1002d3c9  ti_sysbios_family_arm_m3_Hwi_Module_startup__E                  
00000ba4  ti_sysbios_family_arm_m3_Hwi_NUM_INTERRUPTS__C                  
00000da0  ti_sysbios_family_arm_m3_Hwi_Object__DESC__C                    
1002fc10  ti_sysbios_family_arm_m3_Hwi_Object__PARAMS__C                  
00000dc4  ti_sysbios_family_arm_m3_Hwi_Object__count__C                   
1002e1ad  ti_sysbios_family_arm_m3_Hwi_Object__delete__S                  
1002e1d5  ti_sysbios_family_arm_m3_Hwi_Object__get__S                     
00000b54  ti_sysbios_family_arm_m3_Hwi_Object__table__C                   
20002c20  ti_sysbios_family_arm_m3_Hwi_Object__table__V                   
1002eb49  ti_sysbios_family_arm_m3_Hwi_Params__init__S                    
00000dd8  ti_sysbios_family_arm_m3_Hwi_ccr__C                             
1002d421  ti_sysbios_family_arm_m3_Hwi_construct                          
00013c85  ti_sysbios_family_arm_m3_Hwi_construct2__E                      
1002d1a1  ti_sysbios_family_arm_m3_Hwi_create                             
1002ec8b  ti_sysbios_family_arm_m3_Hwi_delete                             
1002e475  ti_sysbios_family_arm_m3_Hwi_destruct                           
1002eb55  ti_sysbios_family_arm_m3_Hwi_disableFxn__E                      
1002d8d9  ti_sysbios_family_arm_m3_Hwi_disableInterrupt__E                
1002cedd  ti_sysbios_family_arm_m3_Hwi_dispatchC__I                       
20003340  ti_sysbios_family_arm_m3_Hwi_dispatchTable                      
1002f931  ti_sysbios_family_arm_m3_Hwi_dispatch__I                        
1002ec29  ti_sysbios_family_arm_m3_Hwi_doSwiRestore__I                    
1002ec41  ti_sysbios_family_arm_m3_Hwi_doTaskRestore__I                   
1002eb61  ti_sysbios_family_arm_m3_Hwi_enableFxn__E                       
1002d91d  ti_sysbios_family_arm_m3_Hwi_enableInterrupt__E                 
1002b82d  ti_sysbios_family_arm_m3_Hwi_excBusFault__I                     
1002c31d  ti_sysbios_family_arm_m3_Hwi_excDebugMon__I                     
1002b405  ti_sysbios_family_arm_m3_Hwi_excDumpRegs__I                     
1002bda9  ti_sysbios_family_arm_m3_Hwi_excFillContext__I                  
1002fb39  ti_sysbios_family_arm_m3_Hwi_excHandlerAsm__I                   
00000c20  ti_sysbios_family_arm_m3_Hwi_excHandlerFunc__C                  
1002beb5  ti_sysbios_family_arm_m3_Hwi_excHandlerMax__I                   
1002ddf5  ti_sysbios_family_arm_m3_Hwi_excHandler__I                      
1002c185  ti_sysbios_family_arm_m3_Hwi_excHardFault__I                    
00002454  ti_sysbios_family_arm_m3_Hwi_excHookFuncs__A                    
00000a94  ti_sysbios_family_arm_m3_Hwi_excHookFuncs__C                    
1002bc61  ti_sysbios_family_arm_m3_Hwi_excMemFault__I                     
1002da71  ti_sysbios_family_arm_m3_Hwi_excNmi__I                          
1002d961  ti_sysbios_family_arm_m3_Hwi_excNoIsr__I                        
1002d62d  ti_sysbios_family_arm_m3_Hwi_excReserved__I                     
1002d9a5  ti_sysbios_family_arm_m3_Hwi_excSvCall__I                       
1002b9a1  ti_sysbios_family_arm_m3_Hwi_excUsageFault__I                   
1002daad  ti_sysbios_family_arm_m3_Hwi_getHandle__E                       
1002d9e9  ti_sysbios_family_arm_m3_Hwi_getStackInfo__E                    
1002c831  ti_sysbios_family_arm_m3_Hwi_initNVIC__E                        
1002fab9  ti_sysbios_family_arm_m3_Hwi_initStacks__E                      
1002fa11  ti_sysbios_family_arm_m3_Hwi_interruptsAreDisabledButShouldNotBe
00000c80  ti_sysbios_family_arm_m3_Hwi_nullIsrFunc__C                     
00000d54  ti_sysbios_family_arm_m3_Hwi_numSparseInterrupts__C             
e000e000  ti_sysbios_family_arm_m3_Hwi_nvic                               
1002fb11  ti_sysbios_family_arm_m3_Hwi_pendSV__I                          
1002e8fd  ti_sysbios_family_arm_m3_Hwi_plug__E                            
1002c3d9  ti_sysbios_family_arm_m3_Hwi_postInit__I                        
00015f5d  ti_sysbios_family_arm_m3_Hwi_post__E                            
00000ce4  ti_sysbios_family_arm_m3_Hwi_priGroup__C                        
20000000  ti_sysbios_family_arm_m3_Hwi_ramVectors                         
00000000  ti_sysbios_family_arm_m3_Hwi_resetVectors                       
1002ec47  ti_sysbios_family_arm_m3_Hwi_restoreFxn__E                      
1002fb35  ti_sysbios_family_arm_m3_Hwi_return                             
000162f3  ti_sysbios_family_arm_m3_Hwi_setFunc__E                         
1002e919  ti_sysbios_family_arm_m3_Hwi_setPriority__E                     
1002ec31  ti_sysbios_family_arm_m3_Hwi_startup__E                         
1002e935  ti_sysbios_family_arm_m3_Hwi_switchFromBootStack__E             
1002ec8f  ti_sysbios_family_arm_m3_TaskSupport_Module__startupDone__S     
1002fa2d  ti_sysbios_family_arm_m3_TaskSupport_buildTaskStack             
1002eab5  ti_sysbios_family_arm_m3_TaskSupport_getStackAlignment__E       
1002fb8f  ti_sysbios_family_arm_m3_TaskSupport_glue                       
00000ba0  ti_sysbios_family_arm_m3_TaskSupport_stackAlignment__C          
1002dae9  ti_sysbios_family_arm_m3_TaskSupport_start__E                   
1002fb77  ti_sysbios_family_arm_m3_TaskSupport_swap__E                    
1002fb59  ti_sysbios_family_xxx_Hwi_switchAndRunFunc                      
1002e499  ti_sysbios_gates_GateHwi_Handle__label__S                       
1002d5d7  ti_sysbios_gates_GateHwi_Instance_init__E                       
00000ca0  ti_sysbios_gates_GateHwi_Module__FXNS__C                        
00000c10  ti_sysbios_gates_GateHwi_Module__id__C                          
20002d04  ti_sysbios_gates_GateHwi_Module__root__V                        
00000d2c  ti_sysbios_gates_GateHwi_Object__DESC__C                        
1002fd00  ti_sysbios_gates_GateHwi_Object__PARAMS__C                      
1002e029  ti_sysbios_gates_GateHwi_Object__create__S                      
1002e4bd  ti_sysbios_gates_GateHwi_Object__delete__S                      
1002eb6d  ti_sysbios_gates_GateHwi_enter__E                               
1002ec4d  ti_sysbios_gates_GateHwi_leave__E                               
1002ec93  ti_sysbios_gates_GateHwi_query__E                               
00014a89  ti_sysbios_gates_GateMutexPri_Handle__label__S                  
0000247c  ti_sysbios_gates_GateMutexPri_Instance_State_pendQ__O           
00015f6d  ti_sysbios_gates_GateMutexPri_Instance_finalize__E              
00015b7d  ti_sysbios_gates_GateMutexPri_Instance_init__E                  
0000220c  ti_sysbios_gates_GateMutexPri_Module__FXNS__C                   
20002d0c  ti_sysbios_gates_GateMutexPri_Module__root__V                   
00002250  ti_sysbios_gates_GateMutexPri_Object__DESC__C                   
000022c4  ti_sysbios_gates_GateMutexPri_Object__PARAMS__C                 
00014651  ti_sysbios_gates_GateMutexPri_Object__create__S                 
00015021  ti_sysbios_gates_GateMutexPri_Object__delete__S                 
000161b9  ti_sysbios_gates_GateMutexPri_Params__init__S                   
00014681  ti_sysbios_gates_GateMutexPri_create                            
0000f169  ti_sysbios_gates_GateMutexPri_enter__E                          
0001431f  ti_sysbios_gates_GateMutexPri_insertPri__I                      
00010765  ti_sysbios_gates_GateMutexPri_leave__E                          
0001639d  ti_sysbios_gates_GateMutexPri_query__E                          
1002e4e1  ti_sysbios_gates_GateMutex_Handle__label__S                     
00000abc  ti_sysbios_gates_GateMutex_Instance_State_sem__O                
1002ec53  ti_sysbios_gates_GateMutex_Instance_finalize__E                 
1002e9bb  ti_sysbios_gates_GateMutex_Instance_init__E                     
00000b24  ti_sysbios_gates_GateMutex_Module__FXNS__C                      
00000c86  ti_sysbios_gates_GateMutex_Module__id__C                        
20002d14  ti_sysbios_gates_GateMutex_Module__root__V                      
00000a98  ti_sysbios_gates_GateMutex_Object__DESC__C                      
1002fd18  ti_sysbios_gates_GateMutex_Object__PARAMS__C                    
1002de25  ti_sysbios_gates_GateMutex_Object__create__S                    
1002e1fd  ti_sysbios_gates_GateMutex_Object__delete__S                    
200028d4  ti_sysbios_gates_GateMutex_Object__table__V                     
1002eb79  ti_sysbios_gates_GateMutex_Params__init__S                      
1002e055  ti_sysbios_gates_GateMutex_construct                            
1002de55  ti_sysbios_gates_GateMutex_create                               
1002ec97  ti_sysbios_gates_GateMutex_delete                               
1002e505  ti_sysbios_gates_GateMutex_destruct                             
1002e225  ti_sysbios_gates_GateMutex_enter__E                             
1002eb05  ti_sysbios_gates_GateMutex_leave__E                             
1002ec9b  ti_sysbios_gates_GateMutex_query__E                             
1002e451  ti_sysbios_hal_Hwi_HwiProxy_Handle__label__S                    
1002e185  ti_sysbios_hal_Hwi_HwiProxy_Module__startupDone__S              
1002eb49  ti_sysbios_hal_Hwi_HwiProxy_Params__init__S                     
1002ec9f  ti_sysbios_hal_Hwi_HwiProxy_create                              
1002eca3  ti_sysbios_hal_Hwi_HwiProxy_delete                              
1002d8d9  ti_sysbios_hal_Hwi_HwiProxy_disableInterrupt__E                 
1002d8d9  ti_sysbios_hal_Hwi_HwiProxy_disableInterrupt__E                 
1002d91d  ti_sysbios_hal_Hwi_HwiProxy_enableInterrupt__E                  
1002d91d  ti_sysbios_hal_Hwi_HwiProxy_enableInterrupt__E                  
1002d9e9  ti_sysbios_hal_Hwi_HwiProxy_getStackInfo__E                     
1002d9e9  ti_sysbios_hal_Hwi_HwiProxy_getStackInfo__E                     
00015f5d  ti_sysbios_hal_Hwi_HwiProxy_post__E                             
1002ec31  ti_sysbios_hal_Hwi_HwiProxy_startup__E                          
1002ec31  ti_sysbios_hal_Hwi_HwiProxy_startup__E                          
1002e935  ti_sysbios_hal_Hwi_HwiProxy_switchFromBootStack__E              
1002e935  ti_sysbios_hal_Hwi_HwiProxy_switchFromBootStack__E              
1002ec15  ti_sysbios_hal_Hwi_Instance_finalize__E                         
1002e8dd  ti_sysbios_hal_Hwi_Instance_init__E                             
20002d1c  ti_sysbios_hal_Hwi_Module__root__V                              
1002ea61  ti_sysbios_hal_Hwi_Module_startup__E                            
00000cc4  ti_sysbios_hal_Hwi_Object__DESC__C                              
1002fc40  ti_sysbios_hal_Hwi_Object__PARAMS__C                            
1002e24d  ti_sysbios_hal_Hwi_Object__delete__S                            
1002d1fd  ti_sysbios_hal_Hwi_create                                       
1002eca7  ti_sysbios_hal_Hwi_delete                                       
1002d8d9  ti_sysbios_hal_Hwi_disableInterrupt__E                          
1002d8d9  ti_sysbios_hal_Hwi_disableInterrupt__E                          
1002d91d  ti_sysbios_hal_Hwi_enableInterrupt__E                           
1002d91d  ti_sysbios_hal_Hwi_enableInterrupt__E                           
1002d9e9  ti_sysbios_hal_Hwi_getStackInfo__E                              
1002d9e9  ti_sysbios_hal_Hwi_getStackInfo__E                              
1002df75  ti_sysbios_hal_Hwi_initStack                                    
00015f5d  ti_sysbios_hal_Hwi_post__E                                      
1002ec31  ti_sysbios_hal_Hwi_startup__E                                   
1002ec31  ti_sysbios_hal_Hwi_startup__E                                   
1002e935  ti_sysbios_hal_Hwi_switchFromBootStack__E                       
1002e935  ti_sysbios_hal_Hwi_switchFromBootStack__E                       
00014ab5  ti_sysbios_heaps_HeapCallback_Handle__label__S                  
00015f7d  ti_sysbios_heaps_HeapCallback_Instance_finalize__E              
00015b95  ti_sysbios_heaps_HeapCallback_Instance_init__E                  
00002170  ti_sysbios_heaps_HeapCallback_Module__FXNS__C                   
20002d24  ti_sysbios_heaps_HeapCallback_Module__root__V                   
000138f5  ti_sysbios_heaps_HeapCallback_Module_startup__E                 
00002270  ti_sysbios_heaps_HeapCallback_Object__DESC__C                   
00002290  ti_sysbios_heaps_HeapCallback_Object__PARAMS__C                 
00002480  ti_sysbios_heaps_HeapCallback_Object__count__C                  
000146b1  ti_sysbios_heaps_HeapCallback_Object__create__S                 
00015045  ti_sysbios_heaps_HeapCallback_Object__delete__S                 
00015e5d  ti_sysbios_heaps_HeapCallback_Object__get__S                    
20002cc0  ti_sysbios_heaps_HeapCallback_Object__table__V                  
00002484  ti_sysbios_heaps_HeapCallback_allocInstFxn__C                   
00015f8d  ti_sysbios_heaps_HeapCallback_alloc__E                          
00002488  ti_sysbios_heaps_HeapCallback_createInstFxn__C                  
000163a1  ti_sysbios_heaps_HeapCallback_defaultCreate                     
00011a0b  ti_sysbios_heaps_HeapCallback_defaultDelete                     
0000248c  ti_sysbios_heaps_HeapCallback_deleteInstFxn__C                  
00002490  ti_sysbios_heaps_HeapCallback_freeInstFxn__C                    
00015f9d  ti_sysbios_heaps_HeapCallback_free__E                           
00002494  ti_sysbios_heaps_HeapCallback_getStatsInstFxn__C                
00015fad  ti_sysbios_heaps_HeapCallback_getStats__E                       
00002498  ti_sysbios_heaps_HeapCallback_initInstFxn__C                    
0000249c  ti_sysbios_heaps_HeapCallback_isBlockingInstFxn__C              
00015fbd  ti_sysbios_heaps_HeapCallback_isBlocking__E                     
00000de0  ti_sysbios_heaps_HeapMem_E_memory__C                            
1002e529  ti_sysbios_heaps_HeapMem_Handle__label__S                       
1002d849  ti_sysbios_heaps_HeapMem_Instance_init__E                       
1002e4e1  ti_sysbios_heaps_HeapMem_Module_GateProxy_Handle__label__S      
1002eb79  ti_sysbios_heaps_HeapMem_Module_GateProxy_Params__init__S       
1002ecab  ti_sysbios_heaps_HeapMem_Module_GateProxy_enter__E              
1002ecaf  ti_sysbios_heaps_HeapMem_Module_GateProxy_leave__E              
1002ec9b  ti_sysbios_heaps_HeapMem_Module_GateProxy_query__E              
1002ec9b  ti_sysbios_heaps_HeapMem_Module_GateProxy_query__E              
00000c24  ti_sysbios_heaps_HeapMem_Module__FXNS__C                        
00000bb8  ti_sysbios_heaps_HeapMem_Module__gateObj__C                     
00000c1c  ti_sysbios_heaps_HeapMem_Module__id__C                          
20002d2c  ti_sysbios_heaps_HeapMem_Module__root__V                        
00000dec  ti_sysbios_heaps_HeapMem_Object__DESC__C                        
1002fc94  ti_sysbios_heaps_HeapMem_Object__PARAMS__C                      
00000d50  ti_sysbios_heaps_HeapMem_Object__count__C                       
1002de85  ti_sysbios_heaps_HeapMem_Object__create__S                      
1002e54d  ti_sysbios_heaps_HeapMem_Object__delete__S                      
1002e275  ti_sysbios_heaps_HeapMem_Object__get__S                         
00000b80  ti_sysbios_heaps_HeapMem_Object__table__C                       
000103c1  ti_sysbios_heaps_HeapMem_allocUnprotected__E                    
00012175  ti_sysbios_heaps_HeapMem_alloc__E                               
1002d479  ti_sysbios_heaps_HeapMem_freeUnprotected__E                     
1002dbd9  ti_sysbios_heaps_HeapMem_free__E                                
1002d6cd  ti_sysbios_heaps_HeapMem_getStats__E                            
1002dd25  ti_sysbios_heaps_HeapMem_init__I                                
1002ec59  ti_sysbios_heaps_HeapMem_isBlocking__E                          
00000d04  ti_sysbios_heaps_HeapMem_reqAlign__C                            
1002eb13  ti_sysbios_heaps_HeapMem_restore__E                             
00000b7c  ti_sysbios_heaps_HeapTrack_A_bufOverflow__C                     
00000d00  ti_sysbios_heaps_HeapTrack_A_doubleFree__C                      
00000b90  ti_sysbios_heaps_HeapTrack_A_notEmpty__C                        
1002e571  ti_sysbios_heaps_HeapTrack_Handle__label__S                     
1002fd9c  ti_sysbios_heaps_HeapTrack_Instance_State_trackQueue__O         
1002c5d9  ti_sysbios_heaps_HeapTrack_Instance_finalize__E                 
1002e595  ti_sysbios_heaps_HeapTrack_Instance_init__E                     
00000ac0  ti_sysbios_heaps_HeapTrack_Module__FXNS__C                      
1002fda0  ti_sysbios_heaps_HeapTrack_Module__diagsEnabled__C              
1002fda4  ti_sysbios_heaps_HeapTrack_Module__diagsIncluded__C             
1002fda8  ti_sysbios_heaps_HeapTrack_Module__diagsMask__C                 
00000ddc  ti_sysbios_heaps_HeapTrack_Module__id__C                        
1002fd80  ti_sysbios_heaps_HeapTrack_Object__PARAMS__C                    
1002e081  ti_sysbios_heaps_HeapTrack_Object__create__S                    
1002e5b9  ti_sysbios_heaps_HeapTrack_Object__delete__S                    
1002eb85  ti_sysbios_heaps_HeapTrack_Params__init__S                      
1002c8c1  ti_sysbios_heaps_HeapTrack_alloc__E                             
1002e0ad  ti_sysbios_heaps_HeapTrack_create                               
1002bb01  ti_sysbios_heaps_HeapTrack_free__E                              
1002e5dd  ti_sysbios_heaps_HeapTrack_getStats__E                          
1002eb91  ti_sysbios_heaps_HeapTrack_isBlocking__E                        
1002e9d1  ti_sysbios_knl_Clock_Instance_finalize__E                       
1002dd59  ti_sysbios_knl_Clock_Instance_init__E                           
00000d7c  ti_sysbios_knl_Clock_Module_State_clockQ__O                     
20002d34  ti_sysbios_knl_Clock_Module__root__V                            
200022f0  ti_sysbios_knl_Clock_Module__state__V                           
1002e601  ti_sysbios_knl_Clock_Module_startup__E                          
00000af8  ti_sysbios_knl_Clock_Object__DESC__C                            
1002fcb8  ti_sysbios_knl_Clock_Object__PARAMS__C                          
1002e29d  ti_sysbios_knl_Clock_Object__delete__S                          
20002be0  ti_sysbios_knl_Clock_Object__table__V                           
1002eb9d  ti_sysbios_knl_Clock_Params__init__S                            
1002e15d  ti_sysbios_knl_Clock_TimerProxy_Module__startupDone__S          
1002eac5  ti_sysbios_knl_Clock_TimerProxy_getCurrentTick__E               
1002ecb3  ti_sysbios_knl_Clock_TimerProxy_getExpiredTicks__E              
1002ead5  ti_sysbios_knl_Clock_TimerProxy_getMaxTicks__E                  
1002ecb7  ti_sysbios_knl_Clock_TimerProxy_getPeriod__E                    
1002eae5  ti_sysbios_knl_Clock_TimerProxy_setNextTick__E                  
1002dcf1  ti_sysbios_knl_Clock_TimerProxy_startup__E                      
1002dcf1  ti_sysbios_knl_Clock_TimerProxy_startup__E                      
1002e625  ti_sysbios_knl_Clock_addI__E                                    
1002dd8d  ti_sysbios_knl_Clock_construct                                  
1002db25  ti_sysbios_knl_Clock_create                                     
1002ecbb  ti_sysbios_knl_Clock_delete                                     
1002e649  ti_sysbios_knl_Clock_destruct                                   
00015e71  ti_sysbios_knl_Clock_doTick__I                                  
00014ae1  ti_sysbios_knl_Clock_getTicksUntilInterrupt__E                  
1002dc11  ti_sysbios_knl_Clock_getTicks__E                                
000146e1  ti_sysbios_knl_Clock_getTimeout__E                              
1002eba9  ti_sysbios_knl_Clock_getTimerHandle__E                          
000163a5  ti_sysbios_knl_Clock_isActive__E                                
1002dbd7  ti_sysbios_knl_Clock_logTick__E                                 
1002ecbf  ti_sysbios_knl_Clock_removeI__E                                 
1002e81d  ti_sysbios_knl_Clock_scheduleNextTick__E                        
1002ecc3  ti_sysbios_knl_Clock_setTimeout__E                              
1002c94d  ti_sysbios_knl_Clock_startI__E                                  
1002e9e7  ti_sysbios_knl_Clock_start__E                                   
1002e2c5  ti_sysbios_knl_Clock_stop__E                                    
00000c84  ti_sysbios_knl_Clock_tickMode__C                                
000024a0  ti_sysbios_knl_Clock_tickPeriod__C                              
00000ba8  ti_sysbios_knl_Clock_triggerClock__C                            
1002dfa3  ti_sysbios_knl_Clock_triggerFunc__I                             
1002cbc5  ti_sysbios_knl_Clock_walkQueueDynamic__E                        
1002c53d  ti_sysbios_knl_Clock_workFuncDynamic__E                         
1002cad9  ti_sysbios_knl_Clock_workFunc__E                                
00000d60  ti_sysbios_knl_Event_Instance_State_pendQ__O                    
1002ec1f  ti_sysbios_knl_Event_Instance_init__E                           
20002d3c  ti_sysbios_knl_Event_Module__root__V                            
00000a74  ti_sysbios_knl_Event_Object__DESC__C                            
1002fd30  ti_sysbios_knl_Event_Object__PARAMS__C                          
1002e66d  ti_sysbios_knl_Event_Object__delete__S                          
1002ebb5  ti_sysbios_knl_Event_Params__init__S                            
1002e83d  ti_sysbios_knl_Event_checkEvents__I                             
1002e0d9  ti_sysbios_knl_Event_construct                                  
1002deb5  ti_sysbios_knl_Event_create                                     
1002ecc7  ti_sysbios_knl_Event_delete                                     
1002e85d  ti_sysbios_knl_Event_destruct                                   
1002e105  ti_sysbios_knl_Event_pendTimeout__I                             
1002c0a5  ti_sysbios_knl_Event_pend__E                                    
1002cfb3  ti_sysbios_knl_Event_post__E                                    
1002ea73  ti_sysbios_knl_Event_sync__E                                    
000024a4  ti_sysbios_knl_Idle_funcList__A                                 
00000aec  ti_sysbios_knl_Idle_funcList__C                                 
1002ec39  ti_sysbios_knl_Idle_loop__E                                     
1002e2ed  ti_sysbios_knl_Idle_run__E                                      
00000b1c  ti_sysbios_knl_Mailbox_Instance_State_dataQue__O                
00000c9c  ti_sysbios_knl_Mailbox_Instance_State_dataSem__O                
00000e14  ti_sysbios_knl_Mailbox_Instance_State_freeQue__O                
00000cf0  ti_sysbios_knl_Mailbox_Instance_State_freeSem__O                
1002d2b5  ti_sysbios_knl_Mailbox_Instance_finalize__E                     
1002c48d  ti_sysbios_knl_Mailbox_Instance_init__E                         
20002d44  ti_sysbios_knl_Mailbox_Module__root__V                          
1002da2d  ti_sysbios_knl_Mailbox_Module_startup__E                        
00000c60  ti_sysbios_knl_Mailbox_Object__DESC__C                          
1002fbdc  ti_sysbios_knl_Mailbox_Object__PARAMS__C                        
00000d6c  ti_sysbios_knl_Mailbox_Object__count__C                         
1002e315  ti_sysbios_knl_Mailbox_Object__delete__S                        
1002e33d  ti_sysbios_knl_Mailbox_Object__get__S                           
00000b50  ti_sysbios_knl_Mailbox_Object__table__C                         
1002ebc1  ti_sysbios_knl_Mailbox_Params__init__S                          
1002d4d1  ti_sysbios_knl_Mailbox_construct                                
1002d311  ti_sysbios_knl_Mailbox_create                                   
1002eccb  ti_sysbios_knl_Mailbox_delete                                   
1002e691  ti_sysbios_knl_Mailbox_destruct                                 
00000d58  ti_sysbios_knl_Mailbox_maxTypeAlign__C                          
1002d581  ti_sysbios_knl_Mailbox_pend__E                                  
1002e405  ti_sysbios_knl_Mailbox_postInit__I                              
1002cf49  ti_sysbios_knl_Mailbox_post__E                                  
1002ec5f  ti_sysbios_knl_Queue_Instance_init__E                           
20002d4c  ti_sysbios_knl_Queue_Module__root__V                            
00000bc4  ti_sysbios_knl_Queue_Object__DESC__C                            
1002fd48  ti_sysbios_knl_Queue_Object__PARAMS__C                          
00000c54  ti_sysbios_knl_Queue_Object__count__C                           
1002e6b5  ti_sysbios_knl_Queue_Object__delete__S                          
1002e87d  ti_sysbios_knl_Queue_Object__get__S                             
00000cf4  ti_sysbios_knl_Queue_Object__table__C                           
1002dee5  ti_sysbios_knl_Queue_construct                                  
1002df15  ti_sysbios_knl_Queue_create                                     
1002eccf  ti_sysbios_knl_Queue_delete                                     
1002ebcd  ti_sysbios_knl_Queue_dequeue__E                                 
1002e89d  ti_sysbios_knl_Queue_destruct                                   
1002ec65  ti_sysbios_knl_Queue_elemClear__E                               
1002eb21  ti_sysbios_knl_Queue_empty__E                                   
1002ebd9  ti_sysbios_knl_Queue_enqueue__E                                 
1002e951  ti_sysbios_knl_Queue_get__E                                     
1002ecd3  ti_sysbios_knl_Queue_head__E                                    
000161c5  ti_sysbios_knl_Queue_insert__E                                  
1002ecd7  ti_sysbios_knl_Queue_next__E                                    
1002e96d  ti_sysbios_knl_Queue_put__E                                     
1002eb2f  ti_sysbios_knl_Queue_remove__E                                  
00000d98  ti_sysbios_knl_Semaphore_Instance_State_pendQ__O                
1002e6d9  ti_sysbios_knl_Semaphore_Instance_finalize__E                   
1002d01d  ti_sysbios_knl_Semaphore_Instance_init__E                       
20002d54  ti_sysbios_knl_Semaphore_Module__root__V                        
00000d0c  ti_sysbios_knl_Semaphore_Object__DESC__C                        
1002fcdc  ti_sysbios_knl_Semaphore_Object__PARAMS__C                      
1002e365  ti_sysbios_knl_Semaphore_Object__delete__S                      
1002ebe5  ti_sysbios_knl_Semaphore_Params__init__S                        
1002ddc1  ti_sysbios_knl_Semaphore_construct                              
1002dc49  ti_sysbios_knl_Semaphore_create                                 
1002ecdb  ti_sysbios_knl_Semaphore_delete                                 
1002e6fd  ti_sysbios_knl_Semaphore_destruct                               
00000cf8  ti_sysbios_knl_Semaphore_eventPost__C                           
00000b20  ti_sysbios_knl_Semaphore_eventSync__C                           
1002e131  ti_sysbios_knl_Semaphore_pendTimeout__I                         
1002bfb1  ti_sysbios_knl_Semaphore_pend__E                                
1002cd21  ti_sysbios_knl_Semaphore_post__E                                
1002e721  ti_sysbios_knl_Swi_Handle__label__S                             
1002e42b  ti_sysbios_knl_Swi_Instance_finalize__E                         
1002d36d  ti_sysbios_knl_Swi_Instance_init__E                             
200029d4  ti_sysbios_knl_Swi_Module_State_0_readyQ__A                     
00000bb2  ti_sysbios_knl_Swi_Module__id__C                                
20002d5c  ti_sysbios_knl_Swi_Module__root__V                              
20002354  ti_sysbios_knl_Swi_Module__state__V                             
1002e745  ti_sysbios_knl_Swi_Module_startup__E                            
00000b58  ti_sysbios_knl_Swi_Object__DESC__C                              
1002fc6c  ti_sysbios_knl_Swi_Object__PARAMS__C                            
00000ae8  ti_sysbios_knl_Swi_Object__count__C                             
1002e769  ti_sysbios_knl_Swi_Object__delete__S                            
1002e38d  ti_sysbios_knl_Swi_Object__get__S                               
00000bac  ti_sysbios_knl_Swi_Object__table__C                             
20002a04  ti_sysbios_knl_Swi_Object__table__V                             
1002ebf1  ti_sysbios_knl_Swi_Params__init__S                              
1002d719  ti_sysbios_knl_Swi_construct                                    
000157d9  ti_sysbios_knl_Swi_construct2__E                                
1002d765  ti_sysbios_knl_Swi_create                                       
1002ecdf  ti_sysbios_knl_Swi_delete                                       
1002e8bd  ti_sysbios_knl_Swi_destruct                                     
1002ea25  ti_sysbios_knl_Swi_disable__E                                   
1002ea39  ti_sysbios_knl_Swi_enabled__E                                   
000161d1  ti_sysbios_knl_Swi_getTrigger__E                                
00000c88  ti_sysbios_knl_Swi_numPriorities__C                             
00015bad  ti_sysbios_knl_Swi_or__E                                        
1002ece3  ti_sysbios_knl_Swi_postInit__I                                  
1002d891  ti_sysbios_knl_Swi_post__E                                      
1002c9d5  ti_sysbios_knl_Swi_restoreHwi__E                                
1002db61  ti_sysbios_knl_Swi_restore__E                                   
1002d081  ti_sysbios_knl_Swi_runLoop__I                                   
1002cd91  ti_sysbios_knl_Swi_run__I                                       
1002d0e1  ti_sysbios_knl_Swi_schedule__I                                  
1002ebfd  ti_sysbios_knl_Swi_self__E                                      
000142b9  ti_sysbios_knl_Swi_setPri__E                                    
1002ec6b  ti_sysbios_knl_Swi_startup__E                                   
1002e78d  ti_sysbios_knl_Task_Handle__label__S                            
20002d98  ti_sysbios_knl_Task_Instance_State_0_stack__A                   
1002c671  ti_sysbios_knl_Task_Instance_finalize__E                        
1002c251  ti_sysbios_knl_Task_Instance_init__E                            
20002d84  ti_sysbios_knl_Task_Module_State_0_idleTask__A                  
20002a34  ti_sysbios_knl_Task_Module_State_0_readyQ__A                    
00000b48  ti_sysbios_knl_Task_Module_State_inactiveQ__O                   
00000b18  ti_sysbios_knl_Task_Module__id__C                               
20002d64  ti_sysbios_knl_Task_Module__root__V                             
20002370  ti_sysbios_knl_Task_Module__state__V                            
1002d141  ti_sysbios_knl_Task_Module_startup__E                           
00000bec  ti_sysbios_knl_Task_Object__DESC__C                             
1002fba0  ti_sysbios_knl_Task_Object__PARAMS__C                           
00000de8  ti_sysbios_knl_Task_Object__count__C                            
1002e3b5  ti_sysbios_knl_Task_Object__delete__S                           
1002e7b1  ti_sysbios_knl_Task_Object__get__S                              
00000c5c  ti_sysbios_knl_Task_Object__table__C                            
200026cc  ti_sysbios_knl_Task_Object__table__V                            
1002ec09  ti_sysbios_knl_Task_Params__init__S                             
1002ec8f  ti_sysbios_knl_Task_SupportProxy_Module__startupDone__S         
1002eab5  ti_sysbios_knl_Task_SupportProxy_getStackAlignment__E           
1002eab5  ti_sysbios_knl_Task_SupportProxy_getStackAlignment__E           
1002dae9  ti_sysbios_knl_Task_SupportProxy_start__E                       
1002dae9  ti_sysbios_knl_Task_SupportProxy_start__E                       
1002fb77  ti_sysbios_knl_Task_SupportProxy_swap__E                        
1002fb77  ti_sysbios_knl_Task_SupportProxy_swap__E                        
00000d64  ti_sysbios_knl_Task_allBlockedFunc__C                           
1002d67d  ti_sysbios_knl_Task_allBlockedFunction__I                       
1002d7b1  ti_sysbios_knl_Task_blockI__E                                   
00015c65  ti_sysbios_knl_Task_block__E                                    
1002d5d9  ti_sysbios_knl_Task_construct                                   
1002d529  ti_sysbios_knl_Task_create                                      
00000dd0  ti_sysbios_knl_Task_defaultStackHeap__C                         
00000d88  ti_sysbios_knl_Task_defaultStackSize__C                         
1002ece7  ti_sysbios_knl_Task_delete                                      
1002e7d5  ti_sysbios_knl_Task_destruct                                    
1002ea4d  ti_sysbios_knl_Task_disable__E                                  
1002ec71  ti_sysbios_knl_Task_enable__E                                   
1002e7f9  ti_sysbios_knl_Task_enter__I                                    
1002db9d  ti_sysbios_knl_Task_exit__E                                     
000163a9  ti_sysbios_knl_Task_getPri__E                                   
00000c94  ti_sysbios_knl_Task_initStackFlag__C                            
00000c8c  ti_sysbios_knl_Task_numConstructedTasks__C                      
1002ca59  ti_sysbios_knl_Task_postInit__I                                 
1002dc81  ti_sysbios_knl_Task_processVitalTaskFlag__I                     
1002e3dd  ti_sysbios_knl_Task_restoreHwi__E                               
1002df45  ti_sysbios_knl_Task_restore__E                                  
1002cc39  ti_sysbios_knl_Task_schedule__I                                 
1002eaf5  ti_sysbios_knl_Task_self__E                                     
0000dc7d  ti_sysbios_knl_Task_setPri__E                                   
1002e989  ti_sysbios_knl_Task_sleepTimeout__I                             
1002ce01  ti_sysbios_knl_Task_sleep__E                                    
1002ccad  ti_sysbios_knl_Task_startCore__E                                
1002eceb  ti_sysbios_knl_Task_startup__E                                  
1002fb83  ti_sysbios_knl_Task_swapReturn                                  
1002dcb9  ti_sysbios_knl_Task_unblockI__E                                 
1002e9a3  ti_sysbios_knl_Task_unblock__E                                  
1002d7fd  ti_sysbios_knl_Task_yield__E                                    
1002b400  ti_sysbios_rom_cortexm_cc26xx_cc26x2v2_CC26xx_REVISION__C       
20003d20  timerAlignedQ                                                   
20003d24  timerUnalignedQ                                                 
20002b38  txAckReq                                                        
20002c38  txCmdHandle                                                     
0000bf21  txComplete                                                      
00008f59  txCsmaDelay                                                     
200017d4  txPowerTable_2gfsk100kbps154g868mhz                             
20001770  txPowerTable_2gfsk100kbps154g915mhz                             
20001838  txPowerTable_2gfsk200kbps154g                                   
2000189c  txPowerTable_2gfsk500kbps154g                                   
2000170c  txPowerTable_2gfsk50kbps154g                                    
200016bc  txPowerTable_ieee154                                            
20001900  txPowerTable_slr5kbps2gfsk                                      
20001d49  txPwr                                                           
20002b3b  txSeqn                                                          
20002f98  uartCC26XXObjects                                               
20000100  xdcRomConstPtr                                                  
20000104  xdcRomExternFuncPtr                                             
20000108  xdcRomStatePtr                                                  
00000001  xdc_rov_runtime_Mon__checksum                                   
00000001  xdc_rov_runtime_Mon__write                                      
00000c0c  xdc_runtime_Assert_E_assertFailed__C                            
1002f421  xdc_runtime_Assert_raise__I                                     
1002f659  xdc_runtime_Core_assignLabel__I                                 
1002f4c9  xdc_runtime_Core_assignParams__I                                
1002f511  xdc_runtime_Core_constructObject__I                             
1002f2f9  xdc_runtime_Core_createObject__I                                
1002f367  xdc_runtime_Core_deleteObject__I                                
1002f803  xdc_runtime_Core_destructObject__I                              
00000ce8  xdc_runtime_Error_E_memory__C                                   
20002c00  xdc_runtime_Error_IgnoreBlock                                   
1002f779  xdc_runtime_Error_check__E                                      
00015bdd  xdc_runtime_Error_init__E                                       
00000b88  xdc_runtime_Error_policyFxn__C                                  
1002f1f7  xdc_runtime_Error_policySpin__E                                 
00000a64  xdc_runtime_Error_policy__C                                     
1002f739  xdc_runtime_Error_raiseX__E                                     
1002f91b  xdc_runtime_Gate_enterSystem__E                                 
1002f90f  xdc_runtime_Gate_leaveSystem__E                                 
00000d8c  xdc_runtime_IGateProvider_Interface__BASE__C                    
00000c14  xdc_runtime_IHeap_Interface__BASE__C                            
00000a68  xdc_runtime_IModule_Interface__BASE__C                          
1002e499  xdc_runtime_Main_Module_GateProxy_Handle__label__S              
1002ec93  xdc_runtime_Main_Module_GateProxy_query__E                      
1002e529  xdc_runtime_Memory_HeapProxy_Handle__label__S                   
1002f8f1  xdc_runtime_Memory_HeapProxy_alloc__E                           
1002f8fb  xdc_runtime_Memory_HeapProxy_free__E                            
1002f905  xdc_runtime_Memory_HeapProxy_getStats__E                        
00000bb0  xdc_runtime_Memory_Module__id__C                                
200023b4  xdc_runtime_Memory_Module__state__V                             
1002f289  xdc_runtime_Memory_alloc__E                                     
1002f8d9  xdc_runtime_Memory_calloc__E                                    
00000e10  xdc_runtime_Memory_defaultHeapInstance__C                       
1002f81d  xdc_runtime_Memory_free__E                                      
1002f8a9  xdc_runtime_Memory_getMaxDefaultTypeAlign__E                    
1002f831  xdc_runtime_Memory_getStats__E                                  
1002f795  xdc_runtime_Memory_valloc__E                                    
20002328  xdc_runtime_Registry_Module__state__V                           
1002f759  xdc_runtime_Registry_findById__E                                
20002320  xdc_runtime_Startup_Module__state__V                            
00000001  xdc_runtime_Startup__EXECFXN__C                                 
00000001  xdc_runtime_Startup__RESETFXN__C                                
00000ab8  xdc_runtime_Startup_execImpl__C                                 
1002f475  xdc_runtime_Startup_exec__E                                     
00015bf5  xdc_runtime_Startup_exec__I                                     
000023ec  xdc_runtime_Startup_firstFxns__A                                
00000b94  xdc_runtime_Startup_firstFxns__C                                
00011e01  xdc_runtime_Startup_getState__I                                 
00000a6c  xdc_runtime_Startup_lastFxns__C                                 
00000c90  xdc_runtime_Startup_maxPasses__C                                
000163ad  xdc_runtime_Startup_reset__I                                    
1002f8e5  xdc_runtime_Startup_rtsDone__E                                  
00002304  xdc_runtime_Startup_sfxnRts__A                                  
00000d08  xdc_runtime_Startup_sfxnRts__C                                  
000021c0  xdc_runtime_Startup_sfxnTab__A                                  
00000e18  xdc_runtime_Startup_sfxnTab__C                                  
00000d94  xdc_runtime_Startup_startModsFxn__C                             
1002f055  xdc_runtime_Startup_startMods__I                                
1002f91f  xdc_runtime_SysCallback_Module__startupDone__S                  
00000dcc  xdc_runtime_SysCallback_abortFxn__C                             
1002f845  xdc_runtime_SysCallback_abort__E                                
00012223  xdc_runtime_SysCallback_defaultAbort                            
00012893  xdc_runtime_SysCallback_defaultExit                             
00012cbb  xdc_runtime_SysCallback_defaultFlush                            
000139ef  xdc_runtime_SysCallback_defaultPutch                            
000163b1  xdc_runtime_SysCallback_defaultReady                            
00000c18  xdc_runtime_SysCallback_exitFxn__C                              
1002f859  xdc_runtime_SysCallback_exit__E                                 
00000bb4  xdc_runtime_SysCallback_flushFxn__C                             
1002f86d  xdc_runtime_SysCallback_flush__E                                
00000d4c  xdc_runtime_SysCallback_putchFxn__C                             
1002f881  xdc_runtime_SysCallback_putch__E                                
00000d80  xdc_runtime_SysCallback_readyFxn__C                             
1002f895  xdc_runtime_SysCallback_ready__E                                
1002e499  xdc_runtime_System_Module_GateProxy_Handle__label__S            
1002f923  xdc_runtime_System_Module_GateProxy_enter__E                    
1002f927  xdc_runtime_System_Module_GateProxy_leave__E                    
1002ec93  xdc_runtime_System_Module_GateProxy_query__E                    
1002ec93  xdc_runtime_System_Module_GateProxy_query__E                    
200023b8  xdc_runtime_System_Module__state__V                             
1002f915  xdc_runtime_System_Module_startup__E                            
1002f91f  xdc_runtime_System_SupportProxy_Module__startupDone__S          
1002f845  xdc_runtime_System_SupportProxy_abort__E                        
1002f859  xdc_runtime_System_SupportProxy_exit__E                         
1002f86d  xdc_runtime_System_SupportProxy_flush__E                        
1002f881  xdc_runtime_System_SupportProxy_putch__E                        
1002f895  xdc_runtime_System_SupportProxy_ready__E                        
00000c98  xdc_runtime_System_abortFxn__C                                  
1002f81b  xdc_runtime_System_abortSpin__E                                 
1002f711  xdc_runtime_System_abort__E                                     
1002f559  xdc_runtime_System_atexit__E                                    
1002ecf1  xdc_runtime_System_doPrint__I                                   
00000cfc  xdc_runtime_System_exitFxn__C                                   
1002f92f  xdc_runtime_System_exitSpin__E                                  
1002f7b1  xdc_runtime_System_exit__E                                      
00000d9c  xdc_runtime_System_extendFxn__C                                 
1002f86d  xdc_runtime_System_flush__E                                     
00010ca5  xdc_runtime_System_formatNum__I                                 
00000c50  xdc_runtime_System_maxAtexitHandlers__C                         
0000aec5  xdc_runtime_System_printfExtend__I                              
1002f7e9  xdc_runtime_System_printf__E                                    
1002f92b  xdc_runtime_System_printf_va__F                                 
1002f5e5  xdc_runtime_System_processAtExit__E                             
1002f625  xdc_runtime_System_putchar__I                                   
1002f6b9  xdc_runtime_System_vprintf__E                                   
1002f8b9  xdc_runtime_System_vsnprintf__E                                 
00000b78  xdc_runtime_Text_charCnt__C                                     
0000192f  xdc_runtime_Text_charTab__A                                     
00000b9c  xdc_runtime_Text_charTab__C                                     
1002f6e5  xdc_runtime_Text_cordText__E                                    
00000af4  xdc_runtime_Text_isLoaded__C                                    
00000dc0  xdc_runtime_Text_nameEmpty__C                                   
00000d70  xdc_runtime_Text_nameStatic__C                                  
00000e0c  xdc_runtime_Text_nameUnknown__C                                 
1002f689  xdc_runtime_Text_printVisFxn__I                                 
1002f3c5  xdc_runtime_Text_putLab__E                                      
1002f1f9  xdc_runtime_Text_putMod__E                                      
1002f15d  xdc_runtime_Text_putSite__E                                     
00000c58  xdc_runtime_Text_registryModsLastId__C                          
1002f7cd  xdc_runtime_Text_ropeText__E                                    
00000d84  xdc_runtime_Text_unnamedModsLastId__C                           
00000dc8  xdc_runtime_Text_visitRopeFxn__C                                
00016297  xdc_runtime_Text_visitRope__I                                   
1002f5a1  xdc_runtime_Text_xprintf__I                                     
1002f8c9  xdc_runtime_Timestamp_SupportProxy_get32__E                     
1002f8c9  xdc_runtime_Timestamp_SupportProxy_get32__E                     
1002dffd  xdc_runtime_Timestamp_SupportProxy_get64__E                     
1002dffd  xdc_runtime_Timestamp_SupportProxy_get64__E                     
1002eb3d  xdc_runtime_Timestamp_SupportProxy_getFreq__E                   
1002eb3d  xdc_runtime_Timestamp_SupportProxy_getFreq__E                   
1002f8c9  xdc_runtime_Timestamp_get32__E                                  
1002f8c9  xdc_runtime_Timestamp_get32__E                                  
1002dffd  xdc_runtime_Timestamp_get64__E                                  
1002dffd  xdc_runtime_Timestamp_get64__E                                  
1002eb3d  xdc_runtime_Timestamp_getFreq__E                                
1002eb3d  xdc_runtime_Timestamp_getFreq__E                                


GLOBAL SYMBOLS: SORTED BY Symbol Address 

address   name                                                            
-------   ----                                                            
00000000  __ASM__                                                         
00000000  ti_sysbios_family_arm_m3_Hwi_resetVectors                       
00000001  xdc_rov_runtime_Mon__checksum                                   
00000001  xdc_rov_runtime_Mon__write                                      
00000001  xdc_runtime_Startup__EXECFXN__C                                 
00000001  xdc_runtime_Startup__RESETFXN__C                                
0000003c  HMAC_ROM_Flash_JT                                               
0000009f  __ISA__                                                         
000000b2  __PLAT__                                                        
000000d9  __TARG__                                                        
000000ff  __TRDR__                                                        
00000560  __STACK_SIZE                                                    
000005a4  RF_cmdIeeeRxAck_ieee154                                         
000005b8  RF_cmdRadioSetup_ieee154                                        
000005d0  RF_cmdFs_ieee154                                                
000005e8  RF_cmdIeeeTx_ieee154                                            
00000600  RF_cmdFs_2gfsk50kbps154g                                        
00000618  RF_cmdFs_2gfsk100kbps154g915mhz                                 
00000630  RF_cmdFs_2gfsk100kbps154g868mhz                                 
00000648  RF_cmdFs_2gfsk200kbps154g                                       
00000660  RF_cmdFs_2gfsk500kbps154g                                       
00000678  RF_cmdFs_slr5kbps2gfsk                                          
00000690  RF_cmdPropCs_2gfsk50kbps154g                                    
000006ac  RF_cmdPropCs_2gfsk100kbps154g915mhz                             
000006c8  RF_cmdPropCs_2gfsk100kbps154g868mhz                             
000006e4  RF_cmdPropCs_2gfsk200kbps154g                                   
00000700  RF_cmdPropCs_2gfsk500kbps154g                                   
0000071c  RF_cmdPropCs_slr5kbps2gfsk                                      
00000738  RF_cmdIeeeCsma_ieee154                                          
00000758  RF_cmdPropTxAdv_2gfsk50kbps154g                                 
00000778  RF_cmdPropTxAdv_2gfsk100kbps154g915mhz                          
00000798  RF_cmdPropTxAdv_2gfsk100kbps154g868mhz                          
000007b8  RF_cmdPropTxAdv_2gfsk200kbps154g                                
000007d8  RF_cmdPropTxAdv_2gfsk500kbps154g                                
000007f8  RF_cmdPropTxAdv_slr5kbps2gfsk                                   
00000818  RF_cmdPropRadioDivSetup_2gfsk50kbps154g                         
00000840  RF_cmdPropRadioDivSetup_2gfsk100kbps154g915mhz                  
00000868  RF_cmdPropRadioDivSetup_2gfsk100kbps154g868mhz                  
00000890  RF_cmdPropRadioDivSetup_2gfsk200kbps154g                        
000008b8  RF_cmdPropRadioDivSetup_2gfsk500kbps154g                        
000008e0  RF_cmdPropRadioDivSetup_slr5kbps2gfsk                           
00000908  RF_cmdPropRxAdv_2gfsk50kbps154g                                 
00000938  RF_cmdPropRxAdv_2gfsk100kbps154g915mhz                          
00000968  RF_cmdPropRxAdv_2gfsk100kbps154g868mhz                          
00000998  RF_cmdPropRxAdv_2gfsk200kbps154g                                
000009c8  RF_cmdPropRxAdv_2gfsk500kbps154g                                
000009f8  RF_cmdPropRxAdv_slr5kbps2gfsk                                   
00000a28  RF_cmdIeeeRx_ieee154                                            
00000a64  ROM_constStruct                                                 
00000a64  xdc_runtime_Error_policy__C                                     
00000a68  xdc_runtime_IModule_Interface__BASE__C                          
00000a6c  xdc_runtime_Startup_lastFxns__C                                 
00000a74  ti_sysbios_knl_Event_Object__DESC__C                            
00000a94  ti_sysbios_family_arm_m3_Hwi_excHookFuncs__C                    
00000a98  ti_sysbios_gates_GateMutex_Object__DESC__C                      
00000ab8  xdc_runtime_Startup_execImpl__C                                 
00000abc  ti_sysbios_gates_GateMutex_Instance_State_sem__O                
00000ac0  ti_sysbios_heaps_HeapTrack_Module__FXNS__C                      
00000ae8  ti_sysbios_knl_Swi_Object__count__C                             
00000aec  ti_sysbios_knl_Idle_funcList__C                                 
00000af4  xdc_runtime_Text_isLoaded__C                                    
00000af8  ti_sysbios_knl_Clock_Object__DESC__C                            
00000b18  ti_sysbios_knl_Task_Module__id__C                               
00000b1c  ti_sysbios_knl_Mailbox_Instance_State_dataQue__O                
00000b20  ti_sysbios_knl_Semaphore_eventSync__C                           
00000b24  ti_sysbios_gates_GateMutex_Module__FXNS__C                      
00000b48  ti_sysbios_knl_Task_Module_State_inactiveQ__O                   
00000b4c  ti_sysbios_family_arm_m3_Hwi_Module__id__C                      
00000b4e  ti_sysbios_family_arm_cc26xx_Timer_Module__id__C                
00000b50  ti_sysbios_knl_Mailbox_Object__table__C                         
00000b54  ti_sysbios_family_arm_m3_Hwi_Object__table__C                   
00000b58  ti_sysbios_knl_Swi_Object__DESC__C                              
00000b78  xdc_runtime_Text_charCnt__C                                     
00000b7c  ti_sysbios_heaps_HeapTrack_A_bufOverflow__C                     
00000b80  ti_sysbios_heaps_HeapMem_Object__table__C                       
00000b84  ti_sysbios_family_arm_cc26xx_Timer_funcHookCH1__C               
00000b88  xdc_runtime_Error_policyFxn__C                                  
00000b8c  ti_sysbios_family_arm_m3_Hwi_E_reserved__C                      
00000b90  ti_sysbios_heaps_HeapTrack_A_notEmpty__C                        
00000b94  xdc_runtime_Startup_firstFxns__C                                
00000b9c  xdc_runtime_Text_charTab__C                                     
00000ba0  ti_sysbios_family_arm_m3_TaskSupport_stackAlignment__C          
00000ba4  ti_sysbios_family_arm_m3_Hwi_NUM_INTERRUPTS__C                  
00000ba8  ti_sysbios_knl_Clock_triggerClock__C                            
00000bac  ti_sysbios_knl_Swi_Object__table__C                             
00000bb0  xdc_runtime_Memory_Module__id__C                                
00000bb2  ti_sysbios_knl_Swi_Module__id__C                                
00000bb4  xdc_runtime_SysCallback_flushFxn__C                             
00000bb8  ti_sysbios_heaps_HeapMem_Module__gateObj__C                     
00000bbc  ti_sysbios_family_arm_cc26xx_Timer_startupNeeded__C             
00000bc0  ti_sysbios_family_arm_m3_Hwi_E_noIsr__C                         
00000bc4  ti_sysbios_knl_Queue_Object__DESC__C                            
00000be4  ti_sysbios_family_arm_cc26xx_Timer_funcHookCH2__C               
00000be8  ti_sysbios_family_arm_m3_Hwi_E_NMI__C                           
00000bec  ti_sysbios_knl_Task_Object__DESC__C                             
00000c0c  xdc_runtime_Assert_E_assertFailed__C                            
00000c10  ti_sysbios_gates_GateHwi_Module__id__C                          
00000c14  xdc_runtime_IHeap_Interface__BASE__C                            
00000c18  xdc_runtime_SysCallback_exitFxn__C                              
00000c1c  ti_sysbios_heaps_HeapMem_Module__id__C                          
00000c20  ti_sysbios_family_arm_m3_Hwi_excHandlerFunc__C                  
00000c24  ti_sysbios_heaps_HeapMem_Module__FXNS__C                        
00000c4c  ti_sysbios_family_arm_m3_Hwi_E_busFault__C                      
00000c50  xdc_runtime_System_maxAtexitHandlers__C                         
00000c54  ti_sysbios_knl_Queue_Object__count__C                           
00000c58  xdc_runtime_Text_registryModsLastId__C                          
00000c5c  ti_sysbios_knl_Task_Object__table__C                            
00000c60  ti_sysbios_knl_Mailbox_Object__DESC__C                          
00000c80  ti_sysbios_family_arm_m3_Hwi_nullIsrFunc__C                     
00000c84  ti_sysbios_knl_Clock_tickMode__C                                
00000c86  ti_sysbios_gates_GateMutex_Module__id__C                        
00000c88  ti_sysbios_knl_Swi_numPriorities__C                             
00000c8c  ti_sysbios_knl_Task_numConstructedTasks__C                      
00000c90  xdc_runtime_Startup_maxPasses__C                                
00000c94  ti_sysbios_knl_Task_initStackFlag__C                            
00000c98  xdc_runtime_System_abortFxn__C                                  
00000c9c  ti_sysbios_knl_Mailbox_Instance_State_dataSem__O                
00000ca0  ti_sysbios_gates_GateHwi_Module__FXNS__C                        
00000cc4  ti_sysbios_hal_Hwi_Object__DESC__C                              
00000ce4  ti_sysbios_family_arm_m3_Hwi_priGroup__C                        
00000ce8  xdc_runtime_Error_E_memory__C                                   
00000cec  ti_sysbios_family_arm_m3_Hwi_E_alreadyDefined__C                
00000cf0  ti_sysbios_knl_Mailbox_Instance_State_freeSem__O                
00000cf4  ti_sysbios_knl_Queue_Object__table__C                           
00000cf8  ti_sysbios_knl_Semaphore_eventPost__C                           
00000cfc  xdc_runtime_System_exitFxn__C                                   
00000d00  ti_sysbios_heaps_HeapTrack_A_doubleFree__C                      
00000d04  ti_sysbios_heaps_HeapMem_reqAlign__C                            
00000d08  xdc_runtime_Startup_sfxnRts__C                                  
00000d0c  ti_sysbios_knl_Semaphore_Object__DESC__C                        
00000d2c  ti_sysbios_gates_GateHwi_Object__DESC__C                        
00000d4c  xdc_runtime_SysCallback_putchFxn__C                             
00000d50  ti_sysbios_heaps_HeapMem_Object__count__C                       
00000d54  ti_sysbios_family_arm_m3_Hwi_numSparseInterrupts__C             
00000d58  ti_sysbios_knl_Mailbox_maxTypeAlign__C                          
00000d5c  ti_sysbios_family_arm_cc26xx_TimestampProvider_useClockTimer__C 
00000d60  ti_sysbios_knl_Event_Instance_State_pendQ__O                    
00000d64  ti_sysbios_knl_Task_allBlockedFunc__C                           
00000d68  ti_sysbios_family_arm_m3_Hwi_E_hardFault__C                     
00000d6c  ti_sysbios_knl_Mailbox_Object__count__C                         
00000d70  xdc_runtime_Text_nameStatic__C                                  
00000d74  ti_sysbios_family_arm_m3_Hwi_E_debugMon__C                      
00000d78  ti_sysbios_family_arm_m3_Hwi_E_svCall__C                        
00000d7c  ti_sysbios_knl_Clock_Module_State_clockQ__O                     
00000d80  xdc_runtime_SysCallback_readyFxn__C                             
00000d84  xdc_runtime_Text_unnamedModsLastId__C                           
00000d88  ti_sysbios_knl_Task_defaultStackSize__C                         
00000d8c  xdc_runtime_IGateProvider_Interface__BASE__C                    
00000d90  ti_sysbios_family_arm_m3_Hwi_E_hwiLimitExceeded__C              
00000d94  xdc_runtime_Startup_startModsFxn__C                             
00000d98  ti_sysbios_knl_Semaphore_Instance_State_pendQ__O                
00000d9c  xdc_runtime_System_extendFxn__C                                 
00000da0  ti_sysbios_family_arm_m3_Hwi_Object__DESC__C                    
00000dc0  xdc_runtime_Text_nameEmpty__C                                   
00000dc4  ti_sysbios_family_arm_m3_Hwi_Object__count__C                   
00000dc8  xdc_runtime_Text_visitRopeFxn__C                                
00000dcc  xdc_runtime_SysCallback_abortFxn__C                             
00000dd0  ti_sysbios_knl_Task_defaultStackHeap__C                         
00000dd4  ti_sysbios_family_arm_m3_Hwi_E_usageFault__C                    
00000dd8  ti_sysbios_family_arm_m3_Hwi_ccr__C                             
00000ddc  ti_sysbios_heaps_HeapTrack_Module__id__C                        
00000de0  ti_sysbios_heaps_HeapMem_E_memory__C                            
00000de4  ti_sysbios_family_arm_m3_Hwi_E_memFault__C                      
00000de8  ti_sysbios_knl_Task_Object__count__C                            
00000dec  ti_sysbios_heaps_HeapMem_Object__DESC__C                        
00000e0c  xdc_runtime_Text_nameUnknown__C                                 
00000e10  xdc_runtime_Memory_defaultHeapInstance__C                       
00000e14  ti_sysbios_knl_Mailbox_Instance_State_freeQue__O                
00000e18  xdc_runtime_Startup_sfxnTab__C                                  
00000e1c  FH_ROM_Flash_JT                                                 
00001510  FH_PibTbl                                                       
0000173c  FH_stateMatrix                                                  
00001836  macPibTbl                                                       
0000192e  aesccmCC26XXHWAttrs                                             
0000192f  xdc_runtime_Text_charTab__A                                     
00001930  LMAC_ROM_Flash_JT                                               
000019fc  FHPIB_defaults                                                  
00001a88  macPibDefaults                                                  
00001b90  macAssociatingSt                                                
00001c02  macIdleSt                                                       
00001c74  macPollingSt                                                    
00001ce6  macScanningSt                                                   
00001d58  macStartingSt                                                   
00001dcc  ICALL_OSAL_ROM_Flash_JT                                         
00001e38  macRfDriverTable                                                
00001ea4  macSecurityPibTbl                                               
00001efc  resourceDB                                                      
00001f50  macMRFSKStdPhyTable                                             
00001fe8  ROM_externFuncPtrs                                              
00002030  macCryptoDriverTable                                            
00002070  macTimerRolloverValue                                           
000020cc  BoardGpioInitTable                                              
000020e8  macCmdIncludeFHIe                                               
00002120  NVSCC26XX_fxnTable                                              
00002148  UARTCC26XX_fxnTable                                             
00002170  ti_sysbios_heaps_HeapCallback_Module__FXNS__C                   
000021c0  xdc_runtime_Startup_sfxnTab__A                                  
000021e8  UART_defaultParams                                              
0000220c  ti_sysbios_gates_GateMutexPri_Module__FXNS__C                   
00002250  ti_sysbios_gates_GateMutexPri_Object__DESC__C                   
00002270  ti_sysbios_heaps_HeapCallback_Object__DESC__C                   
00002290  ti_sysbios_heaps_HeapCallback_Object__PARAMS__C                 
000022ac  macSendMsgBufSize                                               
000022c4  ti_sysbios_gates_GateMutexPri_Object__PARAMS__C                 
000022dc  PowerCC26X2_config                                              
00002304  xdc_runtime_Startup_sfxnRts__A                                  
00002318  msacbackSizeTable                                               
0000232c  AESCCM_defaultParams                                            
0000233c  TRNG_defaultParams                                              
0000235c  macIEEEPhyTable                                                 
0000236c  macCmdBufSize                                                   
0000237a  macTxFrameFailed                                                
00002388  macTxFrameSuccess                                               
000023b0  macCbackEventTbl                                                
000023bc  macSendMsgDataSize                                              
000023c8  NVS_config                                                      
000023d4  RFCC26XX_hwAttrs                                                
000023e0  UART_config                                                     
000023ec  xdc_runtime_Startup_firstFxns__A                                
000023f8  Display_count                                                   
000023f9  CONFIG_AESCCM_0_CONST                                           
000023fa  AESCCM_count                                                    
000023fb  CONFIG_GPIO_RLED_CONST                                          
000023fc  CONFIG_GPIO_GLED_CONST                                          
000023fd  CONFIG_GPIO_BTN1_CONST                                          
000023fe  CONFIG_GPIO_BTN2_CONST                                          
000023ff  CONFIG_NVSINTERNAL_CONST                                        
00002400  NVS_count                                                       
00002401  CONFIG_DISPLAY_UART_CONST                                       
00002402  UART_count                                                      
00002403  macCmdLen                                                       
00002424  fhSupFrameTypes                                                 
0000242c  macAuthTagLen                                                   
00002434  AESCCM_config                                                   
0000243c  PINCC26XX_hwAttrs                                               
00002454  ti_sysbios_family_arm_m3_Hwi_excHookFuncs__A                    
00002474  macKeySourceLen                                                 
00002478  NVS_defaultParams                                               
0000247c  ti_sysbios_gates_GateMutexPri_Instance_State_pendQ__O           
00002480  ti_sysbios_heaps_HeapCallback_Object__count__C                  
00002484  ti_sysbios_heaps_HeapCallback_allocInstFxn__C                   
00002488  ti_sysbios_heaps_HeapCallback_createInstFxn__C                  
0000248c  ti_sysbios_heaps_HeapCallback_deleteInstFxn__C                  
00002490  ti_sysbios_heaps_HeapCallback_freeInstFxn__C                    
00002494  ti_sysbios_heaps_HeapCallback_getStatsInstFxn__C                
00002498  ti_sysbios_heaps_HeapCallback_initInstFxn__C                    
0000249c  ti_sysbios_heaps_HeapCallback_isBlockingInstFxn__C              
000024a0  ti_sysbios_knl_Clock_tickPeriod__C                              
000024a4  ti_sysbios_knl_Idle_funcList__A                                 
00002dc1  macWrapperAddDevice                                             
00003639  macRxCb                                                         
00004091  macBuildHeader                                                  
000043a9  macRadioCsmaTxCb                                                
000046b9  macTxFrame                                                      
000049a5  macScanNextChan                                                 
00004c85  NPITask_Fxn                                                     
000054e1  macRxEnhancedBeaconReq                                          
00005765  macPwrVote                                                      
00005eb5  MtSys_commandProcessing                                         
000062fd  macSendReceiveCmdIeee                                           
00006519  macRadioInitSubG                                                
00006731  macSendReceiveCmdSubG                                           
00006945  RF_scheduleCmd                                                  
00006d5d  RF_open                                                         
00007151  PIN_init                                                        
00007331  macWrapperAddKeyInitFCtr                                        
000076e5  macRxBeaconCritical                                             
00007891  macWrapperDeleteKeyAndAssociatedDevices                         
00007bd5  macIncomingFrameSecurityMaterialRetrieval                       
00007d71  Power_sleep                                                     
00007f09  macWrapperDeleteDevice                                          
00008231  macIncomingFrameSecurity                                        
00008549  MtMac_BeaconNotifyInd                                           
000086c5  macSetDefaultsByPhyID                                           
0000883d  MtUtil_commandProcessing                                        
000089b1  Power_init                                                      
00008b25  macRadioTxPrepCsmaUnslotted                                     
00008c91  UARTCC26XX_open                                                 
00008df5  macWrapperDeleteAllDevices                                      
00008f59  txCsmaDelay                                                     
000090bd  NOROM_SysCtrlStandby                                            
00009215  MT_sendResponse                                                 
00009611  UARTCC26XX_hwiIntFxn                                            
00009765  macScanRxBeacon                                                 
000099f9  macRadioLbtTxCb                                                 
00009dbd  UARTCC26XX_read                                                 
00009ef7  Board_initHook                                                  
00009ef9  NVSCC26XX_write                                                 
0000a169  macBuildDataFrame                                               
0000a2a1  macLowLevelBufferInit                                           
0000a3d9  macRadioInitIeee                                                
0000a509  RF_close                                                        
0000a749  macSetupRATChanCompare                                          
0000a861  MAC_CbackEvent                                                  
0000ab9b  NOROM_RFCCpePatchReset                                          
0000ab9d  macEdScanISR                                                    
0000aec5  xdc_runtime_System_printfExtend__I                              
0000b0d1  macOutgoingFrameKeyDescRetrieval                                
0000b2bd  macRxBeacon                                                     
0000b499  macGetRFCmdDuration                                             
0000b585  macSetupReceiveCmd                                              
0000b66d  macOutgoingFrameSecurity                                        
0000b751  macScanRxCoordRealign                                           
0000b835  macTxChannelBusyCallback                                        
0000b9fd  UARTCC26XX_write                                                
0000bbbd  macBuildHeaderIes                                               
0000bc99  RF_control                                                      
0000bd71  RF_pendCmd                                                      
0000be49  macCcmStarTransform                                             
0000bf21  txComplete                                                      
0000bff9  MAC_MlmeScanReq                                                 
0000c0cd  MtMac_ScanCnf                                                   
0000c411  macSymbolTimerTriggerCallback                                   
0000c5a7  _nop                                                            
0000c5a9  PowerCC26XX_standbyPolicy                                       
0000c671  macApiStartReq                                                  
0000c735  MAC_PwrOffReq                                                   
0000c8b5  Power_releaseDependency                                         
0000ca35  macCoordReset                                                   
0000caf5  macMgmtReset                                                    
0000cc71  macAutoPoll                                                     
0000cd2d  Power_setDependency                                             
0000ce9d  TRNG_generateEntropy                                            
0000cf51  MAC_SrcMatchAddEntry                                            
0000d001  macBuildEBeaconNotifyInd                                        
0000d0b1  macRadioUpdateTxPower                                           
0000d161  macStopCmd                                                      
0000d2bf  assertHandler                                                   
0000d36d  PIN_open                                                        
0000d419  macApiBeaconStartReq                                            
0000d4c5  macTaskInit                                                     
0000d571  NOROM_SetupTrimDevice                                           
0000d571  ti_sysbios_family_arm_cc26xx_Boot_trimDevice                    
0000d6c1  macBeaconCheckTxTime                                            
0000d769  macTrackTimeoutCallback                                         
0000d8b5  macCcmStarInverseTransform                                      
0000d959  macRadioTxPrepLbt                                               
0000d9fd  RF_requestAccess                                                
0000da9d  __TI_auto_init                                                  
0000db3d  macBlacklistChecking                                            
0000dbdd  macRadioStartScan                                               
0000dc7d  ti_sysbios_knl_Task_setPri__E                                   
0000de55  macRadioUpdateChannel                                           
0000def1  macRadioUpdateChannelRx                                         
0000df8d  macRxOffRequest                                                 
0000e029  macTimerRealign                                                 
0000e0c5  __aeabi_memcpy                                                  
0000e0c5  __aeabi_memcpy4                                                 
0000e0c5  __aeabi_memcpy8                                                 
0000e0c5  memcpy                                                          
0000e1fd  NPITLUART_initializeTransport                                   
0000e623  __aeabi_uldivmod                                                
0000e875  macIncomingSecurityLevelChecking                                
0000e909  macRatCb_A                                                      
0000e99d  macSetupFsCmd                                                   
0000ea31  UARTCC26XX_writeCancel                                          
0000eac5  MAC_ResumeReq                                                   
0000ebe5  RF_getInfo                                                      
0000ec75  macCcmDecrypt                                                   
0000ed05  macTrackStartCallback                                           
0000ed95  ApiMac_mlmeGetReqArrayLen                                       
0000eead  OsalPort_malloc                                                 
0000ef39  OsalPort_setTimer                                               
0000f051  macCcmEncrypt                                                   
0000f0dd  macRadioTxEnhAckCb                                              
0000f169  ti_sysbios_gates_GateMutexPri_enter__E                          
0000f1f5  ApiMac_mlmeSetReqArray                                          
0000f27d  MAC_SrcMatchEnable                                              
0000f305  NOROM_OSCHF_AttemptToSwitchToXosc                               
0000f49d  RF_getTxPower                                                   
0000f635  macKeyDescriptorLookup                                          
0000f6bd  macMcuOverflowSetPeriod                                         
0000f745  macSymbolTimerInit                                              
0000f855  NPITL_writeTL                                                   
0000fa65  UARTCC26XX_close                                                
0000fae9  macTimerUpdateSymbolTimer                                       
0000fb6d  ApiMac_init                                                     
0000fc6d  NVSCC26XX_open                                                  
0000fced  macMcuOverflowSetCompare                                        
0000fd6d  macRadioWakeupCb                                                
0000fe6d  scheduleNopWakeupCmd                                            
0000feed  ti_sysbios_family_arm_cc26xx_Timer_start__E                     
000100e5  macRxOn                                                         
00010161  osalHeapInitFxn                                                 
000101dd  __aeabi_memclr                                                  
000101dd  __aeabi_memclr4                                                 
000101dd  __aeabi_memclr8                                                 
000101df  __aeabi_memset                                                  
000101df  __aeabi_memset4                                                 
000101df  __aeabi_memset8                                                 
000101e5  memset                                                          
00010259  Board_Led_control                                               
00010349  macTimerSetRollover                                             
000103c1  ti_sysbios_heaps_HeapMem_allocUnprotected__E                    
00010521  PowerCC26X2_auxISR                                              
00010595  RF_ratDisableChannel                                            
00010609  RF_yield                                                        
0001067d  TRNG_construct                                                  
000106f1  macDutyCycleByteToUSec                                          
00010765  ti_sysbios_gates_GateMutexPri_leave__E                          
0001084b  macApiPwrOnReq                                                  
000108bd  NOROM_RFCAnaDivTxOverride                                       
0001099d  RF_getCurrentTime                                               
00010a0d  Random_seedAutomatic                                            
00010c35  __aeabi_ldivmod                                                 
00010ca3  macMcuBitReverse                                                
00010ca5  xdc_runtime_System_formatNum__I                                 
00010d13  macRadioSetRE                                                   
00010d15  NOROM_ChipInfo_GetChipType                                      
00010ded  macRadioTxBackoffBoundary                                       
00010e59  macTrackPeriodCallback                                          
00010ec5  macTxDoneCallback                                               
00010f31  NOROM_OSCHF_SwitchToRcOscTurnOffXosc                            
00011001  OsalPort_registerTask                                           
000110d1  __TI_decompress_lzss                                            
00011139  macRxHaltCleanup                                                
000111a1  macMlmeSubIePresent                                             
00011207  __aeabi_idiv0                                                   
00011207  __aeabi_ldiv0                                                   
000112d1  OsalPort_clearEvent                                             
00011335  OsalPort_pwrmgrTaskState                                        
00011399  UARTCC26XX_control                                              
000113fd  macRequestBackoff                                               
00011461  macSymbolTimerRolloverCallback                                  
000114c5  macTimerAddTimer                                                
00011529  Board_sendExtFlashByte                                          
000115ed  UARTCC26XX_swiIntFxn                                            
0001164f  ti_sysbios_BIOS_nullFunc__I                                     
000116b1  CryptoResourceCC26XX_constructRTOSObjects                       
00011831  macGetRadioTxPowerReg                                           
00011891  macTimerCancel                                                  
000118f1  macTimerGetNextTimer                                            
00011951  convertTxOptions                                                
000119af  NPIFrame_frameMsg                                               
00011a0b  ti_sysbios_heaps_HeapCallback_defaultDelete                     
00011a69  OsalPort_msgReceive                                             
00011ac5  OsalPort_setEvent                                               
00011b21  PIN_remove                                                      
00011c91  macRadioSetChannel                                              
00011ced  macRadioSetChannelRx                                            
00011d49  macSetDefaultsByPatch                                           
00011e01  xdc_runtime_Startup_getState__I                                 
00011f0d  PowerCC26X2_initiateCalibration                                 
00011f65  RF_TxPowerTable_findValue                                       
00011fbd  TRNG_init                                                       
00012015  ResetISR                                                        
00012015  _c_int00                                                        
0001206d  macCanSleep                                                     
000120c5  macRadioTxRequestTxAck                                          
0001211d  main                                                            
00012175  ti_sysbios_heaps_HeapMem_alloc__E                               
000121cd  RF_defaultSubmitPolicy                                          
00012223  xdc_runtime_SysCallback_defaultAbort                            
00012225  AESCCM_construct                                                
00012279  NOROM_PRCMPowerDomainsAllOff                                    
000122cd  NPITask_createTask                                              
00012375  NVSCC26XX_init                                                  
0001241d  StructRingBuf_put                                               
00012471  SwiP_construct                                                  
00012519  macDutyCycleUpdateTransmission                                  
0001256d  macIncomingKeyUsagePolicyChecking                               
000125c1  macTxAckReceivedCallback                                        
00012709  macRadioSetPanCoordinator                                       
00012759  macRxDisable                                                    
000127a9  macTimerStart                                                   
00012847  MtMac_DataCnf                                                   
00012893  xdc_runtime_SysCallback_defaultExit                             
00012895  NOROM_PRCMPowerDomainsAllOn                                     
0001292d  OsalPort_msgSend                                                
000129c5  StructRingBuf_get                                               
00012a11  UARTCC26XX_readCancel                                           
00012a5d  copy_in                                                         
00012b41  macLowLevelYield                                                
00012b8d  macRadioTxHandleAck                                             
00012bd9  macSendFsCmd                                                    
00012c25  osalHeapGetStatsFxn                                             
00012cbb  xdc_runtime_SysCallback_defaultFlush                            
00012cbd  Board_wakeUpExtFlash                                            
00012d05  NOROM_RFCSynthPowerDown                                         
00012d95  NVS_open                                                        
00012ddd  PIN_setOutputEnable                                             
00012e25  PowerCC26X2_RCOSC_clockFunc                                     
00012e6d  PowerCC26XX_switchXOSC_HF                                       
00012eb5  UtilTimer_construct                                             
00012f8d  macDutyCycleCheck                                               
0001301d  macRadioNeedAdjustPower                                         
00013065  macRadioStopScan                                                
000130ad  macTimerUpdActive                                               
00013185  RingBuf_put                                                     
000131cb  macDeviceDescriptorLookup                                       
00013211  MAC_PwrNextTimeout                                              
00013255  NOROM_ChipInfo_GetHwRevision                                    
00013299  NVSCC26XX_read                                                  
00013321  UART_init                                                       
00013365  macCheckPhyRate                                                 
000133a9  macTxTimestampCallback                                          
00013431  MtMac_CommStatusInd                                             
000134b5  ClockP_construct                                                
000134f5  ClockP_create                                                   
00013535  NOROM_OSC_HPOSCRelativeFrequencyOffsetGet                       
00013575  OsalPort_free                                                   
000135b5  PowerCC26XX_isStableXOSC_HF                                     
000135f5  Random_getNumber                                                
00013635  RingBuf_get                                                     
000136b5  UART_open                                                       
00013735  macRatCb_B                                                      
00013775  macRxNokIsr                                                     
000137f5  macSymbolTimerSetTrigger                                        
00013835  macTxUpdateIE                                                   
00013875  __aeabi_uidiv                                                   
00013875  __aeabi_uidivmod                                                
000138b5  ti_sysbios_family_arm_cc26xx_Timer_setThreshold__I              
000138f5  ti_sysbios_heaps_HeapCallback_Module_startup__E                 
00013935  HwiP_construct                                                  
00013973  MtMac_SyncLossInd                                               
000139b1  OsalPort_msgEnqueueMax                                          
000139ef  xdc_runtime_SysCallback_defaultPutch                            
00013a2d  MAC_PwrOnReq                                                    
00013a69  MtSys_resetReq                                                  
00013b1d  PIN_setOutputValue                                              
00013c0d  macTimerRecalcUnaligned                                         
00013c49  macTxDecrypt                                                    
00013c85  ti_sysbios_family_arm_m3_Hwi_construct2__E                      
00013cc1  Util_bufferUint32                                               
00013cfb  ApiMac_buildMsgCapInfo                                          
00013d35  Board_shutDownExtFlash                                          
00013da5  PIN_setConfig                                                   
00013e15  RF_powerConstraintRelease                                       
00013e4d  macTimerAligned                                                 
00013e85  macTimerInit                                                    
00013ebd  macTxAckNotReceivedCallback                                     
00013ef5  macTxFrameIsr                                                   
00013f9d  ti_sysbios_family_arm_cc26xx_Timer_getCurrentTick__E            
0001400d  ApiMac_convertCapabilityInfo                                    
00014043  MtMac_AssociateInd                                              
00014079  ti_sysbios_family_arm_cc26xx_Timer_setNextTick__E               
000140b1  NOROM_SysCtrlIdle                                               
000140e5  NPIRxBuf_ReadFromRxBuf                                          
000141b5  macLowLevelDiags                                                
000141e9  macRadioSetIEEEAddr                                             
0001421d  macRatDisableChannelB                                           
00014251  macSymbolTimerCount                                             
00014251  macTimerGetTime                                                 
000142b9  ti_sysbios_knl_Swi_setPri__E                                    
000142ed  OsalPort_msgExtract                                             
0001431f  ti_sysbios_gates_GateMutexPri_insertPri__I                      
00014351  NPITL_readTL                                                    
000143b1  NVSCC26XX_erase                                                 
000143e1  PINCC26XX_setMux                                                
00014411  Power_releaseConstraint                                         
00014441  Power_setConstraint                                             
000144a1  macFindVendorSpecificIe                                         
000144d1  macRxHardDisable                                                
00014501  macRxSoftDisable                                                
00014531  macSymbolTimerBCWakeUp                                          
00014561  macSymbolTimerICallTimerCback                                   
00014591  macTimerCheckUnAlignedQ                                         
000145c1  ti_sysbios_BIOS_atExitFunc__I                                   
000145f1  ti_sysbios_BIOS_startFunc__I                                    
00014621  ti_sysbios_family_arm_cc26xx_Timer_initDevice__I                
00014651  ti_sysbios_gates_GateMutexPri_Object__create__S                 
00014681  ti_sysbios_gates_GateMutexPri_create                            
000146b1  ti_sysbios_heaps_HeapCallback_Object__create__S                 
000146e1  ti_sysbios_knl_Clock_getTimeout__E                              
00014711  OsalPort_msgDequeue                                             
0001473f  OsalPort_msgEnqueue                                             
000147c9  MtMac_DisassociateInd                                           
000147f5  NVS_init                                                        
0001484d  SemaphoreP_constructBinary                                      
00014879  SemaphoreP_createBinary                                         
000148d1  rf_patch_cpe_ieee_802_15_4                                      
000148fd  rf_patch_cpe_prop                                               
00014955  macRadioSetPanID                                                
00014981  macRadioSetShortAddr                                            
000149ad  macRxSoftEnable                                                 
000149d9  macSymbolTimerSetRollover                                       
00014a05  macTxRequestCsmaRtcDelay                                        
00014a31  sAddrCmp                                                        
00014a89  ti_sysbios_gates_GateMutexPri_Handle__label__S                  
00014ab5  ti_sysbios_heaps_HeapCallback_Handle__label__S                  
00014ae1  ti_sysbios_knl_Clock_getTicksUntilInterrupt__E                  
00014b0d  List_insert                                                     
00014b37  MAC_SrcMatchDeleteEntry                                         
00014b8b  MtMac_DisassociateCnf                                           
00014bb3  NOROM_RFCOverrideSearch                                         
00014c2d  Power_registerNotify                                            
00014ca5  macMcuInit                                                      
00014ccd  macRxEnable                                                     
00014cf5  macTxAbortIsr                                                   
00014d6d  List_put                                                        
00014d93  List_putHead                                                    
00014db9  List_remove                                                     
00014ddf  MtMac_OrphanInd                                                 
00014e05  MtMac_PollInd                                                   
00014e29  NOROM_OSCHF_TurnOnXosc                                          
00014e4d  NOROM_RFCDoorbellSendTo                                         
00014f01  macRadioSwInit                                                  
00014f49  macSymbolTimerPowerDown                                         
00014f6d  macTimer                                                        
00014f91  memcmp                                                          
00014fb5  ti_sysbios_BIOS_registerRTSLock__I                              
00014fd9  ti_sysbios_BIOS_removeRTSLock__I                                
00014ffd  ti_sysbios_family_arm_cc26xx_Timer_getMaxTicks__E               
00015021  ti_sysbios_gates_GateMutexPri_Object__delete__S                 
00015045  ti_sysbios_heaps_HeapCallback_Object__delete__S                 
00015069  CryptoUtils_buffersMatch                                        
0001508b  List_get                                                        
000150ad  OsalPort_msgAllocate                                            
000150cf  radioComputeED                                                  
000150f1  Board_init                                                      
00015111  HwiP_setFunc                                                    
00015131  MAC_SrcMatchAckAllPending                                       
00015151  NPIRxBuf_GetRxBufCount                                          
00015191  NPITL_getRxBufLen                                               
000151f1  OsalPort_memcmp                                                 
00015211  OsalPort_msgDeallocate                                          
00015251  Power_unregisterNotify                                          
000152f1  RF_setTxPower                                                   
00015311  crc_update                                                      
00015331  macGetRadioState                                                
00015351  macRxOff                                                        
00015391  macTxFrameRetransmit                                            
000153f1  ti_sysbios_BIOS_rtsLock__I                                      
00015411  ti_sysbios_family_arm_cc26xx_Timer_dynamicStub__E               
00015431  OsalPort_buildUint32                                            
0001544f  PIN_close                                                       
0001546d  Power_getTransitionLatency                                      
000154a9  macPibIndex                                                     
000154e5  NOROM_ChipInfo_GetChipFamily                                    
00015501  NOROM_FlashProgram                                              
0001551d  NOROM_FlashSectorErase                                          
0001558d  NVSCC26XX_getAttrs                                              
000155a9  NVSCC26XX_lock                                                  
000155e1  PowerCC26XX_schedulerDisable                                    
000155fd  PowerCC26XX_schedulerRestore                                    
00015619  RF_ScheduleCmdParams_init                                       
0001566d  RF_getRssi                                                      
00015689  RF_powerConstraintSet                                           
000156a5  macMcuTimerCapture                                              
000156c1  macNopBackoffTimerExpiry                                        
000156dd  macRadioEnergyDetectStop                                        
000156f9  macRadioInit                                                    
00015715  macRadioTxGo                                                    
00015731  macRxAckTxDoneCallback                                          
00015731  macTxAckIsr                                                     
00015785  macTimerRemoveTimer                                             
000157bd  sAddrExtCmp                                                     
000157d9  ti_sysbios_knl_Swi_construct2__E                                
000157f5  MtMac_PollCnf                                                   
0001580f  MtMac_PurgeCnf                                                  
00015829  OsalPort_enterCS                                                
00015843  PowerCC26XX_calibrate                                           
0001585d  copyApiMacAddrToMacAddr                                         
00015877  macCheckPhyMode                                                 
00015891  macMcuLongDiv                                                   
000158c5  NOROM_ChipInfo_GetPackageType                                   
0001590d  OsalPort_msgPush                                                
00015925  Power_idleFunc                                                  
0001593d  RF_cancelCmd                                                    
0001596d  SwiP_setPriority                                                
0001599d  UART_Params_init                                                
000159b5  UtilTimer_isActive                                              
000159cd  _args_main                                                      
000159fd  macCsmaTimerExpiry                                              
00015a15  macRadioSetTxPower                                              
00015a2d  macRxBackoffTimerExpiry                                         
00015a45  macRxOnRequest                                                  
00015a75  macSymbolBCTimerPowerUp                                         
00015a8d  macSymbolTimerRestore                                           
00015aa5  macSymbolTimerSetTriggerRollover                                
00015abd  macTimerSyncRollover                                            
00015ad5  macTxBackoffTimerExpiry                                         
00015aed  macWrapper8ByteUnused                                           
00015b1d  __aeabi_lmul                                                    
00015b65  ti_sysbios_BIOS_rtsUnlock__I                                    
00015b7d  ti_sysbios_gates_GateMutexPri_Instance_init__E                  
00015b95  ti_sysbios_heaps_HeapCallback_Instance_init__E                  
00015bad  ti_sysbios_knl_Swi_or__E                                        
00015bdd  xdc_runtime_Error_init__E                                       
00015bf5  xdc_runtime_Startup_exec__I                                     
00015c0d  OsalPort_leaveCS                                                
00015c39  Util_parseUint32                                                
00015c4f  ti_sysbios_BIOS_exitFunc__I                                     
00015c65  ti_sysbios_knl_Task_block__E                                    
00015c7d  AESCCM_init                                                     
00015c91  List_clearList                                                  
00015ca5  MAC_CbackCheckPending                                           
00015cb9  MAC_CbackQueryRetransmit                                        
00015ccd  MAC_SrcMatchCheckAllPending                                     
00015ce1  MtMac_AsyncCnf                                                  
00015cf5  MtMac_StartCnf                                                  
00015d09  NOROM_RFCCpeIntGetAndClear                                      
00015d1d  PowerCC26X2_calibrate                                           
00015d31  RF_Params_init                                                  
00015d45  RF_RatConfigCompare_init                                        
00015d6d  RF_flushCmd                                                     
00015d81  RF_ratCompare                                                   
00015da9  StructRingBuf_construct                                         
00015dbd  TRNG_close                                                      
00015dd1  macMcuOverflowCapture                                           
00015df9  sAddrCpy                                                        
00015e0d  sAddrExtCpy                                                     
00015e49  ti_sysbios_family_arm_cc26xx_Timer_getCount64__E                
00015e5d  ti_sysbios_heaps_HeapCallback_Object__get__S                    
00015e71  ti_sysbios_knl_Clock_doTick__I                                  
00015e85  RF_getCmdOp                                                     
00015e97  RingBuf_construct                                               
00015ea9  SemaphoreP_pend                                                 
00015ecd  AESCCM_Params_init                                              
00015edd  AESCCM_open                                                     
00015eed  ClockP_isActive                                                 
00015efd  HwiP_Params_init                                                
00015f0d  NOROM_RFCHwIntGetAndClear                                       
00015f1d  PINCC26XX_getPinCount                                           
00015f4d  SwiP_Params_init                                                
00015f5d  ti_sysbios_family_arm_m3_Hwi_post__E                            
00015f5d  ti_sysbios_hal_Hwi_HwiProxy_post__E                             
00015f5d  ti_sysbios_hal_Hwi_post__E                                      
00015f6d  ti_sysbios_gates_GateMutexPri_Instance_finalize__E              
00015f7d  ti_sysbios_heaps_HeapCallback_Instance_finalize__E              
00015f8d  ti_sysbios_heaps_HeapCallback_alloc__E                          
00015f9d  ti_sysbios_heaps_HeapCallback_free__E                           
00015fad  ti_sysbios_heaps_HeapCallback_getStats__E                       
00015fbd  ti_sysbios_heaps_HeapCallback_isBlocking__E                     
00015fed  CryptoKeyPlaintext_initBlankKey                                 
00015ffb  CryptoKeyPlaintext_initKey                                      
00016009  NVS_write                                                       
00016025  StructRingBuf_isFull                                            
00016033  __TI_decompress_none                                            
00016041  ti_sysbios_family_arm_cc26xx_TimestampProvider_get32__E         
0001604f  AESCCM_close                                                    
0001605b  ClockP_delete                                                   
00016069  ClockP_getSystemTickPeriod                                      
00016075  MAC_PwrMode                                                     
00016081  NOROM_CPUcpsid                                                  
0001608d  NOROM_CPUcpsie                                                  
00016099  NPITL_checkNpiBusy                                              
000160b1  NVSCC26XX_unlock                                                
000160c9  OsalPort_stopTimer                                              
000160d5  Power_getConstraintMask                                         
000160e1  Power_getDependencyCount                                        
000160ed  RF_powerConstraintGet                                           
000160f9  SemaphoreP_delete                                               
00016105  Util_bufferUint16                                               
00016111  Util_parseUint16                                                
0001611d  _register_lock                                                  
00016129  _register_unlock                                                
0001614d  __TI_zero_init                                                  
00016159  macLowLevelReset                                                
00016165  macLowLevelResume                                               
00016171  macPwrReset                                                     
0001617d  macRegisterSfdDetect                                            
00016189  macRxSequenceNum                                                
000161b9  ti_sysbios_gates_GateMutexPri_Params__init__S                   
000161c5  ti_sysbios_knl_Queue_insert__E                                  
000161d1  ti_sysbios_knl_Swi_getTrigger__E                                
000161e9  ClockP_Params_init                                              
000161f3  FHIEPATCH_getPieId                                              
000161fd  NVS_erase                                                       
00016207  NVS_getAttrs                                                    
00016211  NVS_read                                                        
0001621b  UART_control                                                    
00016225  UART_read                                                       
0001622f  UART_write                                                      
00016243  macMcuRandomByte                                                
00016243  macRadioRandomByte                                              
00016257  AESCCM_Operation_init                                           
0001625f  MtMac_AsyncInd                                                  
00016267  MtMac_DataInd                                                   
0001626f  NVSCC26XX_close                                                 
00016277  RF_RatConfigOutput_init                                         
0001627f  UARTCC26XX_init                                                 
00016287  Util_breakUint32                                                
00016297  xdc_runtime_Text_visitRope__I                                   
0001629f  AESCCM_oneStepDecrypt                                           
000162a5  AESCCM_oneStepEncrypt                                           
000162ab  Main_excHandler                                                 
000162b1  NOROM_CPUdelay                                                  
000162b7  NVSCC26XX_control                                               
000162c3  RF_runDirectCmd                                                 
000162c9  RF_runImmediateCmd                                              
000162cf  UARTCC26XX_readPolling                                          
000162d5  UARTCC26XX_writePolling                                         
000162e1  macTxBackoffHandler                                             
000162e7  osalHeapAllocFxn                                                
000162ed  osalHeapFreeFxn                                                 
000162f3  ti_sysbios_family_arm_m3_Hwi_setFunc__E                         
000162f9  ApiMac_enableFH                                                 
000162fd  ApiMac_mlmeResetReq                                             
00016305  ClockP_destruct                                                 
00016309  ClockP_getCpuFreq                                               
0001630d  ClockP_getTimeout                                               
00016311  ClockP_setTimeout                                               
00016315  ClockP_start                                                    
00016319  ClockP_stop                                                     
0001631d  FHIEPATCH_extractHie                                            
00016321  FHIEPATCH_extractPie                                            
00016325  FHIEPATCH_genHie                                                
00016329  FHIEPATCH_genPieContent                                         
0001632d  FHIEPATCH_getHieLen                                             
00016331  FHIEPATCH_getPieContentLen                                      
00016335  FHIEPATCH_parseHie                                              
00016339  FHIEPATCH_parsePie                                              
0001633d  HwiP_destruct                                                   
00016341  HwiP_disable                                                    
00016345  HwiP_enableInterrupt                                            
00016349  HwiP_post                                                       
0001634d  HwiP_setPriority                                                
00016351  NOROM_RFCOverrideUpdate                                         
00016355  RF_defaultExecutionPolicy                                       
00016359  SemaphoreP_destruct                                             
0001635d  SemaphoreP_post                                                 
00016361  SwiP_destruct                                                   
00016365  SwiP_disable                                                    
00016369  SwiP_getTrigger                                                 
0001636d  SwiP_or                                                         
00016371  UtilTimer_start                                                 
00016375  UtilTimer_stop                                                  
0001637d  macPibCheckByPatch                                              
00016381  macRadioComputeLQI                                              
00016385  macRadioTxBOBoundary                                            
00016389  macRxBackoffHandler                                             
00016399  osalHeapIsBlockingFxn                                           
0001639d  ti_sysbios_gates_GateMutexPri_query__E                          
000163a1  ti_sysbios_heaps_HeapCallback_defaultCreate                     
000163a5  ti_sysbios_knl_Clock_isActive__E                                
000163a9  ti_sysbios_knl_Task_getPri__E                                   
000163ad  xdc_runtime_Startup_reset__I                                    
000163b1  xdc_runtime_SysCallback_defaultReady                            
00016650  __TI_static_base__                                              
00016b08  __TI_Handler_Table_Base                                         
00016b14  __TI_Handler_Table_Limit                                        
00016b40  __TI_CINIT_Base                                                 
00016b70  __TI_CINIT_Limit                                                
00056001  rfSelect                                                        
000569b9  macRxFrameIsr                                                   
00057231  MtMac_commandProcessing                                         
00057f7d  MtMac_AssociateCnf                                              
00057fa8  __ccfg                                                          
1002b400  ti_sysbios_rom_cortexm_cc26xx_cc26x2v2_CC26xx_REVISION__C       
1002b405  ti_sysbios_family_arm_m3_Hwi_excDumpRegs__I                     
1002b82d  ti_sysbios_family_arm_m3_Hwi_excBusFault__I                     
1002b9a1  ti_sysbios_family_arm_m3_Hwi_excUsageFault__I                   
1002bb01  ti_sysbios_heaps_HeapTrack_free__E                              
1002bc61  ti_sysbios_family_arm_m3_Hwi_excMemFault__I                     
1002bda9  ti_sysbios_family_arm_m3_Hwi_excFillContext__I                  
1002beb5  ti_sysbios_family_arm_m3_Hwi_excHandlerMax__I                   
1002bfb1  ti_sysbios_knl_Semaphore_pend__E                                
1002c0a5  ti_sysbios_knl_Event_pend__E                                    
1002c185  ti_sysbios_family_arm_m3_Hwi_excHardFault__I                    
1002c251  ti_sysbios_knl_Task_Instance_init__E                            
1002c31d  ti_sysbios_family_arm_m3_Hwi_excDebugMon__I                     
1002c3d9  ti_sysbios_family_arm_m3_Hwi_postInit__I                        
1002c48d  ti_sysbios_knl_Mailbox_Instance_init__E                         
1002c53d  ti_sysbios_knl_Clock_workFuncDynamic__E                         
1002c5d9  ti_sysbios_heaps_HeapTrack_Instance_finalize__E                 
1002c671  ti_sysbios_knl_Task_Instance_finalize__E                        
1002c709  ti_sysbios_family_arm_cc26xx_Timer_periodicStub__E              
1002c79d  ti_sysbios_family_arm_m3_Hwi_Instance_init__E                   
1002c831  ti_sysbios_family_arm_m3_Hwi_initNVIC__E                        
1002c8c1  ti_sysbios_heaps_HeapTrack_alloc__E                             
1002c94d  ti_sysbios_knl_Clock_startI__E                                  
1002c9d5  ti_sysbios_knl_Swi_restoreHwi__E                                
1002ca59  ti_sysbios_knl_Task_postInit__I                                 
1002cad9  ti_sysbios_knl_Clock_workFunc__E                                
1002cbc5  ti_sysbios_knl_Clock_walkQueueDynamic__E                        
1002cc39  ti_sysbios_knl_Task_schedule__I                                 
1002ccad  ti_sysbios_knl_Task_startCore__E                                
1002cd21  ti_sysbios_knl_Semaphore_post__E                                
1002cd91  ti_sysbios_knl_Swi_run__I                                       
1002ce01  ti_sysbios_knl_Task_sleep__E                                    
1002ce71  ti_sysbios_family_arm_m3_Hwi_Instance_finalize__E               
1002cedd  ti_sysbios_family_arm_m3_Hwi_dispatchC__I                       
1002cf49  ti_sysbios_knl_Mailbox_post__E                                  
1002cfb3  ti_sysbios_knl_Event_post__E                                    
1002d01b  ti_sysbios_BIOS_linkedWithIncorrectBootLibrary__E               
1002d01d  ti_sysbios_knl_Semaphore_Instance_init__E                       
1002d081  ti_sysbios_knl_Swi_runLoop__I                                   
1002d0e1  ti_sysbios_knl_Swi_schedule__I                                  
1002d141  ti_sysbios_knl_Task_Module_startup__E                           
1002d1a1  ti_sysbios_family_arm_m3_Hwi_create                             
1002d1fd  ti_sysbios_hal_Hwi_create                                       
1002d2b5  ti_sysbios_knl_Mailbox_Instance_finalize__E                     
1002d311  ti_sysbios_knl_Mailbox_create                                   
1002d36d  ti_sysbios_knl_Swi_Instance_init__E                             
1002d3c9  ti_sysbios_family_arm_m3_Hwi_Module_startup__E                  
1002d421  ti_sysbios_family_arm_m3_Hwi_construct                          
1002d479  ti_sysbios_heaps_HeapMem_freeUnprotected__E                     
1002d4d1  ti_sysbios_knl_Mailbox_construct                                
1002d529  ti_sysbios_knl_Task_create                                      
1002d581  ti_sysbios_knl_Mailbox_pend__E                                  
1002d5d7  ti_sysbios_gates_GateHwi_Instance_init__E                       
1002d5d9  ti_sysbios_knl_Task_construct                                   
1002d62d  ti_sysbios_family_arm_m3_Hwi_excReserved__I                     
1002d67d  ti_sysbios_knl_Task_allBlockedFunction__I                       
1002d6cd  ti_sysbios_heaps_HeapMem_getStats__E                            
1002d719  ti_sysbios_knl_Swi_construct                                    
1002d765  ti_sysbios_knl_Swi_create                                       
1002d7b1  ti_sysbios_knl_Task_blockI__E                                   
1002d7fd  ti_sysbios_knl_Task_yield__E                                    
1002d849  ti_sysbios_heaps_HeapMem_Instance_init__E                       
1002d891  ti_sysbios_knl_Swi_post__E                                      
1002d8d9  ti_sysbios_family_arm_m3_Hwi_disableInterrupt__E                
1002d8d9  ti_sysbios_hal_Hwi_HwiProxy_disableInterrupt__E                 
1002d8d9  ti_sysbios_hal_Hwi_HwiProxy_disableInterrupt__E                 
1002d8d9  ti_sysbios_hal_Hwi_disableInterrupt__E                          
1002d8d9  ti_sysbios_hal_Hwi_disableInterrupt__E                          
1002d91d  ti_sysbios_family_arm_m3_Hwi_enableInterrupt__E                 
1002d91d  ti_sysbios_hal_Hwi_HwiProxy_enableInterrupt__E                  
1002d91d  ti_sysbios_hal_Hwi_HwiProxy_enableInterrupt__E                  
1002d91d  ti_sysbios_hal_Hwi_enableInterrupt__E                           
1002d91d  ti_sysbios_hal_Hwi_enableInterrupt__E                           
1002d961  ti_sysbios_family_arm_m3_Hwi_excNoIsr__I                        
1002d9a5  ti_sysbios_family_arm_m3_Hwi_excSvCall__I                       
1002d9e9  ti_sysbios_family_arm_m3_Hwi_getStackInfo__E                    
1002d9e9  ti_sysbios_hal_Hwi_HwiProxy_getStackInfo__E                     
1002d9e9  ti_sysbios_hal_Hwi_HwiProxy_getStackInfo__E                     
1002d9e9  ti_sysbios_hal_Hwi_getStackInfo__E                              
1002d9e9  ti_sysbios_hal_Hwi_getStackInfo__E                              
1002da2d  ti_sysbios_knl_Mailbox_Module_startup__E                        
1002da71  ti_sysbios_family_arm_m3_Hwi_excNmi__I                          
1002daad  ti_sysbios_family_arm_m3_Hwi_getHandle__E                       
1002dae9  ti_sysbios_family_arm_m3_TaskSupport_start__E                   
1002dae9  ti_sysbios_knl_Task_SupportProxy_start__E                       
1002dae9  ti_sysbios_knl_Task_SupportProxy_start__E                       
1002db25  ti_sysbios_knl_Clock_create                                     
1002db61  SwiP_restore                                                    
1002db61  ti_sysbios_knl_Swi_restore__E                                   
1002db9d  ti_sysbios_knl_Task_exit__E                                     
1002dbd7  ti_sysbios_knl_Clock_logTick__E                                 
1002dbd9  ti_sysbios_heaps_HeapMem_free__E                                
1002dc11  ClockP_getSystemTicks                                           
1002dc11  ti_sysbios_knl_Clock_getTicks__E                                
1002dc49  ti_sysbios_knl_Semaphore_create                                 
1002dc81  ti_sysbios_knl_Task_processVitalTaskFlag__I                     
1002dcb9  ti_sysbios_knl_Task_unblockI__E                                 
1002dcf1  ti_sysbios_family_arm_cc26xx_Timer_startup__E                   
1002dcf1  ti_sysbios_knl_Clock_TimerProxy_startup__E                      
1002dcf1  ti_sysbios_knl_Clock_TimerProxy_startup__E                      
1002dd25  ti_sysbios_heaps_HeapMem_init__I                                
1002dd59  ti_sysbios_knl_Clock_Instance_init__E                           
1002dd8d  ti_sysbios_knl_Clock_construct                                  
1002ddc1  ti_sysbios_knl_Semaphore_construct                              
1002ddf5  ti_sysbios_family_arm_m3_Hwi_excHandler__I                      
1002de25  ti_sysbios_gates_GateMutex_Object__create__S                    
1002de55  ti_sysbios_gates_GateMutex_create                               
1002de85  ti_sysbios_heaps_HeapMem_Object__create__S                      
1002deb5  ti_sysbios_knl_Event_create                                     
1002dee5  ti_sysbios_knl_Queue_construct                                  
1002df15  ti_sysbios_knl_Queue_create                                     
1002df45  ti_sysbios_knl_Task_restore__E                                  
1002df75  ti_sysbios_hal_Hwi_initStack                                    
1002dfa3  ti_sysbios_knl_Clock_triggerFunc__I                             
1002dfa5  ti_sysbios_family_arm_cc26xx_Timer_Module_startup__E            
1002dfd1  ti_sysbios_family_arm_cc26xx_Timer_postInit__I                  
1002dffd  ti_sysbios_family_arm_cc26xx_TimestampProvider_get64__E         
1002dffd  xdc_runtime_Timestamp_SupportProxy_get64__E                     
1002dffd  xdc_runtime_Timestamp_SupportProxy_get64__E                     
1002dffd  xdc_runtime_Timestamp_get64__E                                  
1002dffd  xdc_runtime_Timestamp_get64__E                                  
1002e029  ti_sysbios_gates_GateHwi_Object__create__S                      
1002e055  ti_sysbios_gates_GateMutex_construct                            
1002e081  ti_sysbios_heaps_HeapTrack_Object__create__S                    
1002e0ad  ti_sysbios_heaps_HeapTrack_create                               
1002e0d9  ti_sysbios_knl_Event_construct                                  
1002e105  ti_sysbios_knl_Event_pendTimeout__I                             
1002e131  ti_sysbios_knl_Semaphore_pendTimeout__I                         
1002e15d  ti_sysbios_family_arm_cc26xx_Timer_Module__startupDone__S       
1002e15d  ti_sysbios_knl_Clock_TimerProxy_Module__startupDone__S          
1002e185  ti_sysbios_family_arm_m3_Hwi_Module__startupDone__S             
1002e185  ti_sysbios_hal_Hwi_HwiProxy_Module__startupDone__S              
1002e1ad  ti_sysbios_family_arm_m3_Hwi_Object__delete__S                  
1002e1d5  ti_sysbios_family_arm_m3_Hwi_Object__get__S                     
1002e1fd  ti_sysbios_gates_GateMutex_Object__delete__S                    
1002e225  ti_sysbios_gates_GateMutex_enter__E                             
1002e24d  ti_sysbios_hal_Hwi_Object__delete__S                            
1002e275  ti_sysbios_heaps_HeapMem_Object__get__S                         
1002e29d  ti_sysbios_knl_Clock_Object__delete__S                          
1002e2c5  ti_sysbios_knl_Clock_stop__E                                    
1002e2ed  ti_sysbios_knl_Idle_run__E                                      
1002e315  ti_sysbios_knl_Mailbox_Object__delete__S                        
1002e33d  ti_sysbios_knl_Mailbox_Object__get__S                           
1002e365  ti_sysbios_knl_Semaphore_Object__delete__S                      
1002e38d  ti_sysbios_knl_Swi_Object__get__S                               
1002e3b5  ti_sysbios_knl_Task_Object__delete__S                           
1002e3dd  ti_sysbios_knl_Task_restoreHwi__E                               
1002e405  ti_sysbios_knl_Mailbox_postInit__I                              
1002e42b  ti_sysbios_knl_Swi_Instance_finalize__E                         
1002e42d  ti_sysbios_family_arm_cc26xx_TimestampProvider_Module_startup__E
1002e451  ti_sysbios_family_arm_m3_Hwi_Handle__label__S                   
1002e451  ti_sysbios_hal_Hwi_HwiProxy_Handle__label__S                    
1002e475  ti_sysbios_family_arm_m3_Hwi_destruct                           
1002e499  ti_sysbios_gates_GateHwi_Handle__label__S                       
1002e499  xdc_runtime_Main_Module_GateProxy_Handle__label__S              
1002e499  xdc_runtime_System_Module_GateProxy_Handle__label__S            
1002e4bd  ti_sysbios_gates_GateHwi_Object__delete__S                      
1002e4e1  ti_sysbios_BIOS_RtsGateProxy_Handle__label__S                   
1002e4e1  ti_sysbios_gates_GateMutex_Handle__label__S                     
1002e4e1  ti_sysbios_heaps_HeapMem_Module_GateProxy_Handle__label__S      
1002e505  ti_sysbios_gates_GateMutex_destruct                             
1002e529  ti_sysbios_heaps_HeapMem_Handle__label__S                       
1002e529  xdc_runtime_Memory_HeapProxy_Handle__label__S                   
1002e54d  ti_sysbios_heaps_HeapMem_Object__delete__S                      
1002e571  ti_sysbios_heaps_HeapTrack_Handle__label__S                     
1002e595  ti_sysbios_heaps_HeapTrack_Instance_init__E                     
1002e5b9  ti_sysbios_heaps_HeapTrack_Object__delete__S                    
1002e5dd  ti_sysbios_heaps_HeapTrack_getStats__E                          
1002e601  ti_sysbios_knl_Clock_Module_startup__E                          
1002e625  ti_sysbios_knl_Clock_addI__E                                    
1002e649  ti_sysbios_knl_Clock_destruct                                   
1002e66d  ti_sysbios_knl_Event_Object__delete__S                          
1002e691  ti_sysbios_knl_Mailbox_destruct                                 
1002e6b5  ti_sysbios_knl_Queue_Object__delete__S                          
1002e6d9  ti_sysbios_knl_Semaphore_Instance_finalize__E                   
1002e6fd  ti_sysbios_knl_Semaphore_destruct                               
1002e721  ti_sysbios_knl_Swi_Handle__label__S                             
1002e745  ti_sysbios_knl_Swi_Module_startup__E                            
1002e769  ti_sysbios_knl_Swi_Object__delete__S                            
1002e78d  ti_sysbios_knl_Task_Handle__label__S                            
1002e7b1  ti_sysbios_knl_Task_Object__get__S                              
1002e7d5  ti_sysbios_knl_Task_destruct                                    
1002e7f9  ti_sysbios_knl_Task_enter__I                                    
1002e81d  ti_sysbios_knl_Clock_scheduleNextTick__E                        
1002e83d  ti_sysbios_knl_Event_checkEvents__I                             
1002e85d  ti_sysbios_knl_Event_destruct                                   
1002e87d  ti_sysbios_knl_Queue_Object__get__S                             
1002e89d  ti_sysbios_knl_Queue_destruct                                   
1002e8bd  ti_sysbios_knl_Swi_destruct                                     
1002e8dd  ti_sysbios_hal_Hwi_Instance_init__E                             
1002e8fd  ti_sysbios_family_arm_m3_Hwi_plug__E                            
1002e919  ti_sysbios_family_arm_m3_Hwi_setPriority__E                     
1002e935  ti_sysbios_family_arm_m3_Hwi_switchFromBootStack__E             
1002e935  ti_sysbios_hal_Hwi_HwiProxy_switchFromBootStack__E              
1002e935  ti_sysbios_hal_Hwi_HwiProxy_switchFromBootStack__E              
1002e935  ti_sysbios_hal_Hwi_switchFromBootStack__E                       
1002e935  ti_sysbios_hal_Hwi_switchFromBootStack__E                       
1002e951  ti_sysbios_knl_Queue_get__E                                     
1002e96d  ti_sysbios_knl_Queue_put__E                                     
1002e989  ti_sysbios_knl_Task_sleepTimeout__I                             
1002e9a3  ti_sysbios_knl_Task_unblock__E                                  
1002e9bb  ti_sysbios_gates_GateMutex_Instance_init__E                     
1002e9d1  ti_sysbios_knl_Clock_Instance_finalize__E                       
1002e9e7  ti_sysbios_knl_Clock_start__E                                   
1002e9fd  ti_sysbios_BIOS_getCpuFreq__E                                   
1002ea11  ti_sysbios_BIOS_setThreadType__E                                
1002ea25  ti_sysbios_knl_Swi_disable__E                                   
1002ea39  ti_sysbios_knl_Swi_enabled__E                                   
1002ea4d  ti_sysbios_knl_Task_disable__E                                  
1002ea61  ti_sysbios_hal_Hwi_Module_startup__E                            
1002ea73  ti_sysbios_knl_Event_sync__E                                    
1002ea85  ti_sysbios_BIOS_exit__E                                         
1002ea95  ti_sysbios_BIOS_getThreadType__E                                
1002eaa5  ti_sysbios_BIOS_start__E                                        
1002eab5  ti_sysbios_family_arm_m3_TaskSupport_getStackAlignment__E       
1002eab5  ti_sysbios_knl_Task_SupportProxy_getStackAlignment__E           
1002eab5  ti_sysbios_knl_Task_SupportProxy_getStackAlignment__E           
1002eac5  ti_sysbios_knl_Clock_TimerProxy_getCurrentTick__E               
1002ead5  ti_sysbios_knl_Clock_TimerProxy_getMaxTicks__E                  
1002eae5  ti_sysbios_knl_Clock_TimerProxy_setNextTick__E                  
1002eaf5  ti_sysbios_knl_Task_self__E                                     
1002eb05  ti_sysbios_gates_GateMutex_leave__E                             
1002eb13  ti_sysbios_heaps_HeapMem_restore__E                             
1002eb21  ti_sysbios_knl_Queue_empty__E                                   
1002eb2f  ti_sysbios_knl_Queue_remove__E                                  
1002eb3d  ti_sysbios_family_arm_cc26xx_TimestampProvider_getFreq__E       
1002eb3d  xdc_runtime_Timestamp_SupportProxy_getFreq__E                   
1002eb3d  xdc_runtime_Timestamp_SupportProxy_getFreq__E                   
1002eb3d  xdc_runtime_Timestamp_getFreq__E                                
1002eb3d  xdc_runtime_Timestamp_getFreq__E                                
1002eb49  ti_sysbios_family_arm_m3_Hwi_Params__init__S                    
1002eb49  ti_sysbios_hal_Hwi_HwiProxy_Params__init__S                     
1002eb55  ti_sysbios_family_arm_m3_Hwi_disableFxn__E                      
1002eb61  ti_sysbios_family_arm_m3_Hwi_enableFxn__E                       
1002eb6d  ti_sysbios_gates_GateHwi_enter__E                               
1002eb79  ti_sysbios_BIOS_RtsGateProxy_Params__init__S                    
1002eb79  ti_sysbios_gates_GateMutex_Params__init__S                      
1002eb79  ti_sysbios_heaps_HeapMem_Module_GateProxy_Params__init__S       
1002eb85  ti_sysbios_heaps_HeapTrack_Params__init__S                      
1002eb91  ti_sysbios_heaps_HeapTrack_isBlocking__E                        
1002eb9d  ti_sysbios_knl_Clock_Params__init__S                            
1002eba9  ti_sysbios_knl_Clock_getTimerHandle__E                          
1002ebb5  ti_sysbios_knl_Event_Params__init__S                            
1002ebc1  ti_sysbios_knl_Mailbox_Params__init__S                          
1002ebcd  ti_sysbios_knl_Queue_dequeue__E                                 
1002ebd9  ti_sysbios_knl_Queue_enqueue__E                                 
1002ebe5  ti_sysbios_knl_Semaphore_Params__init__S                        
1002ebf1  ti_sysbios_knl_Swi_Params__init__S                              
1002ebfd  ti_sysbios_knl_Swi_self__E                                      
1002ec09  ti_sysbios_knl_Task_Params__init__S                             
1002ec15  ti_sysbios_hal_Hwi_Instance_finalize__E                         
1002ec1f  ti_sysbios_knl_Event_Instance_init__E                           
1002ec29  ti_sysbios_family_arm_m3_Hwi_doSwiRestore__I                    
1002ec31  ti_sysbios_family_arm_m3_Hwi_startup__E                         
1002ec31  ti_sysbios_hal_Hwi_HwiProxy_startup__E                          
1002ec31  ti_sysbios_hal_Hwi_HwiProxy_startup__E                          
1002ec31  ti_sysbios_hal_Hwi_startup__E                                   
1002ec31  ti_sysbios_hal_Hwi_startup__E                                   
1002ec39  ti_sysbios_knl_Idle_loop__E                                     
1002ec41  ti_sysbios_family_arm_m3_Hwi_doTaskRestore__I                   
1002ec47  HwiP_restore                                                    
1002ec47  ti_sysbios_family_arm_m3_Hwi_restoreFxn__E                      
1002ec4d  ti_sysbios_gates_GateHwi_leave__E                               
1002ec53  ti_sysbios_gates_GateMutex_Instance_finalize__E                 
1002ec59  ti_sysbios_heaps_HeapMem_isBlocking__E                          
1002ec5f  ti_sysbios_knl_Queue_Instance_init__E                           
1002ec65  ti_sysbios_knl_Queue_elemClear__E                               
1002ec6b  ti_sysbios_knl_Swi_startup__E                                   
1002ec71  ti_sysbios_knl_Task_enable__E                                   
1002ec77  ti_sysbios_BIOS_RtsGateProxy_enter__E                           
1002ec7b  ti_sysbios_BIOS_RtsGateProxy_leave__E                           
1002ec7f  ti_sysbios_family_arm_cc26xx_Timer_getExpiredTicks__E           
1002ec83  ti_sysbios_family_arm_cc26xx_Timer_getPeriod__E                 
1002ec87  ti_sysbios_family_arm_cc26xx_Timer_setPeriod__E                 
1002ec8b  ti_sysbios_family_arm_m3_Hwi_delete                             
1002ec8f  ti_sysbios_family_arm_m3_TaskSupport_Module__startupDone__S     
1002ec8f  ti_sysbios_knl_Task_SupportProxy_Module__startupDone__S         
1002ec93  ti_sysbios_gates_GateHwi_query__E                               
1002ec93  xdc_runtime_Main_Module_GateProxy_query__E                      
1002ec93  xdc_runtime_System_Module_GateProxy_query__E                    
1002ec93  xdc_runtime_System_Module_GateProxy_query__E                    
1002ec97  ti_sysbios_gates_GateMutex_delete                               
1002ec9b  ti_sysbios_BIOS_RtsGateProxy_query__E                           
1002ec9b  ti_sysbios_BIOS_RtsGateProxy_query__E                           
1002ec9b  ti_sysbios_gates_GateMutex_query__E                             
1002ec9b  ti_sysbios_heaps_HeapMem_Module_GateProxy_query__E              
1002ec9b  ti_sysbios_heaps_HeapMem_Module_GateProxy_query__E              
1002ec9f  ti_sysbios_hal_Hwi_HwiProxy_create                              
1002eca3  ti_sysbios_hal_Hwi_HwiProxy_delete                              
1002eca7  ti_sysbios_hal_Hwi_delete                                       
1002ecab  ti_sysbios_heaps_HeapMem_Module_GateProxy_enter__E              
1002ecaf  ti_sysbios_heaps_HeapMem_Module_GateProxy_leave__E              
1002ecb3  ti_sysbios_knl_Clock_TimerProxy_getExpiredTicks__E              
1002ecb7  ti_sysbios_knl_Clock_TimerProxy_getPeriod__E                    
1002ecbb  ti_sysbios_knl_Clock_delete                                     
1002ecbf  ti_sysbios_knl_Clock_removeI__E                                 
1002ecc3  ti_sysbios_knl_Clock_setTimeout__E                              
1002ecc7  ti_sysbios_knl_Event_delete                                     
1002eccb  ti_sysbios_knl_Mailbox_delete                                   
1002eccf  ti_sysbios_knl_Queue_delete                                     
1002ecd3  ti_sysbios_knl_Queue_head__E                                    
1002ecd7  ti_sysbios_knl_Queue_next__E                                    
1002ecdb  ti_sysbios_knl_Semaphore_delete                                 
1002ecdf  ti_sysbios_knl_Swi_delete                                       
1002ece3  ti_sysbios_knl_Swi_postInit__I                                  
1002ece7  ti_sysbios_knl_Task_delete                                      
1002eceb  ti_sysbios_knl_Task_startup__E                                  
1002ecf1  xdc_runtime_System_doPrint__I                                   
1002f055  xdc_runtime_Startup_startMods__I                                
1002f15d  xdc_runtime_Text_putSite__E                                     
1002f1f7  xdc_runtime_Error_policySpin__E                                 
1002f1f9  xdc_runtime_Text_putMod__E                                      
1002f289  xdc_runtime_Memory_alloc__E                                     
1002f2f9  xdc_runtime_Core_createObject__I                                
1002f367  xdc_runtime_Core_deleteObject__I                                
1002f3c5  xdc_runtime_Text_putLab__E                                      
1002f421  xdc_runtime_Assert_raise__I                                     
1002f475  xdc_runtime_Startup_exec__E                                     
1002f4c9  xdc_runtime_Core_assignParams__I                                
1002f511  xdc_runtime_Core_constructObject__I                             
1002f559  xdc_runtime_System_atexit__E                                    
1002f5a1  xdc_runtime_Text_xprintf__I                                     
1002f5e5  xdc_runtime_System_processAtExit__E                             
1002f625  xdc_runtime_System_putchar__I                                   
1002f659  xdc_runtime_Core_assignLabel__I                                 
1002f689  xdc_runtime_Text_printVisFxn__I                                 
1002f6b9  xdc_runtime_System_vprintf__E                                   
1002f6e5  xdc_runtime_Text_cordText__E                                    
1002f711  xdc_runtime_System_abort__E                                     
1002f739  xdc_runtime_Error_raiseX__E                                     
1002f759  xdc_runtime_Registry_findById__E                                
1002f779  xdc_runtime_Error_check__E                                      
1002f795  xdc_runtime_Memory_valloc__E                                    
1002f7b1  xdc_runtime_System_exit__E                                      
1002f7cd  xdc_runtime_Text_ropeText__E                                    
1002f7e9  xdc_runtime_System_printf__E                                    
1002f803  xdc_runtime_Core_destructObject__I                              
1002f81b  xdc_runtime_System_abortSpin__E                                 
1002f81d  xdc_runtime_Memory_free__E                                      
1002f831  xdc_runtime_Memory_getStats__E                                  
1002f845  xdc_runtime_SysCallback_abort__E                                
1002f845  xdc_runtime_System_SupportProxy_abort__E                        
1002f859  xdc_runtime_SysCallback_exit__E                                 
1002f859  xdc_runtime_System_SupportProxy_exit__E                         
1002f86d  xdc_runtime_SysCallback_flush__E                                
1002f86d  xdc_runtime_System_SupportProxy_flush__E                        
1002f86d  xdc_runtime_System_flush__E                                     
1002f881  xdc_runtime_SysCallback_putch__E                                
1002f881  xdc_runtime_System_SupportProxy_putch__E                        
1002f895  xdc_runtime_SysCallback_ready__E                                
1002f895  xdc_runtime_System_SupportProxy_ready__E                        
1002f8a9  xdc_runtime_Memory_getMaxDefaultTypeAlign__E                    
1002f8b9  xdc_runtime_System_vsnprintf__E                                 
1002f8c9  xdc_runtime_Timestamp_SupportProxy_get32__E                     
1002f8c9  xdc_runtime_Timestamp_SupportProxy_get32__E                     
1002f8c9  xdc_runtime_Timestamp_get32__E                                  
1002f8c9  xdc_runtime_Timestamp_get32__E                                  
1002f8d9  xdc_runtime_Memory_calloc__E                                    
1002f8e5  xdc_runtime_Startup_rtsDone__E                                  
1002f8f1  xdc_runtime_Memory_HeapProxy_alloc__E                           
1002f8fb  xdc_runtime_Memory_HeapProxy_free__E                            
1002f905  xdc_runtime_Memory_HeapProxy_getStats__E                        
1002f90f  xdc_runtime_Gate_leaveSystem__E                                 
1002f915  xdc_runtime_System_Module_startup__E                            
1002f91b  xdc_runtime_Gate_enterSystem__E                                 
1002f91f  xdc_runtime_SysCallback_Module__startupDone__S                  
1002f91f  xdc_runtime_System_SupportProxy_Module__startupDone__S          
1002f923  xdc_runtime_System_Module_GateProxy_enter__E                    
1002f927  xdc_runtime_System_Module_GateProxy_leave__E                    
1002f92b  xdc_runtime_System_printf_va__F                                 
1002f92f  xdc_runtime_System_exitSpin__E                                  
1002f931  ti_sysbios_family_arm_m3_Hwi_dispatch__I                        
1002fa11  ti_sysbios_family_arm_m3_Hwi_interruptsAreDisabledButShouldNotBe
1002fa2d  ti_sysbios_family_arm_m3_TaskSupport_buildTaskStack             
1002fab9  ti_sysbios_family_arm_m3_Hwi_initStacks__E                      
1002fb11  ti_sysbios_family_arm_m3_Hwi_pendSV__I                          
1002fb35  ti_sysbios_family_arm_m3_Hwi_return                             
1002fb39  ti_sysbios_family_arm_m3_Hwi_excHandlerAsm__I                   
1002fb59  ti_sysbios_family_xxx_Hwi_switchAndRunFunc                      
1002fb77  ti_sysbios_family_arm_m3_TaskSupport_swap__E                    
1002fb77  ti_sysbios_knl_Task_SupportProxy_swap__E                        
1002fb77  ti_sysbios_knl_Task_SupportProxy_swap__E                        
1002fb83  ti_sysbios_knl_Task_swapReturn                                  
1002fb8f  ti_sysbios_family_arm_m3_TaskSupport_glue                       
1002fba0  ti_sysbios_knl_Task_Object__PARAMS__C                           
1002fbdc  ti_sysbios_knl_Mailbox_Object__PARAMS__C                        
1002fc10  ti_sysbios_family_arm_m3_Hwi_Object__PARAMS__C                  
1002fc40  ti_sysbios_hal_Hwi_Object__PARAMS__C                            
1002fc6c  ti_sysbios_knl_Swi_Object__PARAMS__C                            
1002fc94  ti_sysbios_heaps_HeapMem_Object__PARAMS__C                      
1002fcb8  ti_sysbios_knl_Clock_Object__PARAMS__C                          
1002fcdc  ti_sysbios_knl_Semaphore_Object__PARAMS__C                      
1002fd00  ti_sysbios_gates_GateHwi_Object__PARAMS__C                      
1002fd18  ti_sysbios_gates_GateMutex_Object__PARAMS__C                    
1002fd30  ti_sysbios_knl_Event_Object__PARAMS__C                          
1002fd48  ti_sysbios_knl_Queue_Object__PARAMS__C                          
1002fd80  ti_sysbios_heaps_HeapTrack_Object__PARAMS__C                    
1002fd9c  ti_sysbios_heaps_HeapTrack_Instance_State_trackQueue__O         
1002fda0  ti_sysbios_heaps_HeapTrack_Module__diagsEnabled__C              
1002fda4  ti_sysbios_heaps_HeapTrack_Module__diagsIncluded__C             
1002fda8  ti_sysbios_heaps_HeapTrack_Module__diagsMask__C                 
1002fddb  strlen                                                          
10030101  FHAPI_start                                                     
1003035d  FHAPI_completeTxCb                                              
10030501  FHAPI_completeRxCb                                              
10030689  FHAPI_sendData                                                  
10030809  FHAPI_reset                                                     
100308d1  FHAPI_getTxParams_old                                           
10030989  FHAPI_startBS                                                   
10030a21  FHAPI_getTxParams                                               
10030a81  FHAPI_getRemDT                                                  
10030ad1  FHAPI_SFDRxCb                                                   
10030b11  FHAPI_stopAsync                                                 
10030b51  FHAPI_setStateCb                                                
10030b81  FHAPI_getTxChHoppingFunc                                        
10030bad  FHAPI_getBitCount                                               
10030bd1  FHDATA_procASYNCReq                                             
10030cb5  FHDATA_CheckMinTxOffTime                                        
10030d61  FHDATA_getPktFromQueue                                          
10030e05  FHDATA_purgeUnSupportedFrameTypes                               
10030e89  FHDATA_purgePktFromQueue                                        
10030efd  FHDATA_requeuePkt                                               
10030f65  FHDATA_getASYNCDelay                                            
10030fb5  FHDATA_chkASYNCStartReq                                         
10030fed  FHDATA_updateCCA                                                
10031011  FHDATA_asyncMinTxOffTimerCb                                     
10031029  FHDATA_checkPktFromQueue                                        
1003103d  FHDATA_procEDFEReq                                              
10031051  FHDATA_startEDFEReq                                             
10031065  FHDATA_startEDFETimer                                           
10031069  FHDH1CF_hashword                                                
10031129  FHDH1CF_getBCChannelNum                                         
100311ad  FHDH1CF_mapChIdxChannel                                         
10031209  FHDH1CF_getCh                                                   
1003125d  FHDH1CF_getChannelNum                                           
100312b1  FHDH1CF_getTxChannelNum                                         
100312f5  FHDH1CF_getBcCh                                                 
10031325  FHIE_genPieContent                                              
10031699  FHIE_parsePie                                                   
1003197d  FHIE_extractPie                                                 
10031ba9  FHIE_parseCommonInformation                                     
10031d91  FHIE_genHie                                                     
10031ec9  FHIE_parseHie                                                   
10031fed  FHIE_genCommonInformation                                       
1003210d  FHIE_genPie                                                     
1003220d  FHIE_getPieContentLen                                           
1003230d  FHIE_extractHie                                                 
100323cd  FHIE_genExcludedChannelRanges                                   
1003248d  FHIE_genBTIE                                                    
10032519  FHIE_getCcaSfdTime                                              
10032599  FHIE_getPieLen                                                  
10032619  FHIE_getHieLen                                                  
10032689  FHIE_genExcludedChannelMask                                     
100326f1  FHIE_getChannelPlan                                             
10032755  FHIE_genUTIE                                                    
100327b1  FHIE_getCommonInformationLen                                    
10032805  FHIE_isChannelPlanValid                                         
10032859  FHIE_getExcludedChannelControl                                  
10032895  FHIE_getSubPie                                                  
100328cf  FHIE_getPie                                                     
10032905  FHIE_gen                                                        
10032939  FHIE_getHie                                                     
1003296d  FHIE_getLen                                                     
1003299d  FHMGR_bcTimerIsrCb                                              
10032acd  FHMGR_updateRadioUCChannel                                      
10032b45  FHMGR_updateRadioBCChannel                                      
10032bb5  FHMGR_ucTimerIsrCb                                              
10032c1d  FHMGR_macStartFHTimer                                           
10032c75  FHMGR_updateHopping                                             
10032cc9  FHMGR_macStartOneShotTimer                                      
10032cf5  FHMGR_BCTimerEventUpd                                           
10032d11  FHMGR_macCancelFHTimer                                          
10032d29  FHMGR_macGetElapsedFHTime                                       
10032d41  FHMGR_pendBcChUpdate                                            
10032d47  FHMGR_pendUcChUpdate                                            
10032d4d  FHNT_purgeEntry                                                 
10032ea1  FHNT_getRemoveEntryFromTemp                                     
10032fe1  FHNT_getEntry                                                   
10033119  FHNT_AddDeviceCB                                                
10033209  FHNT_createEntry                                                
100332c5  FHNT_createFixedEntry                                           
10033381  FHNT_addTempEUI                                                 
10033429  FHNT_initTempTable                                              
100334c5  FHNT_getRemoveEntry                                             
1003355d  FHNT_getRemoveFixedEntry                                        
100335f5  FHNT_getFixedEntry                                              
10033671  FHNT_getNTIndexFromTempIndex                                    
100336e5  FHNT_getOptEntry                                                
1003374d  FHNT_addOptEntry                                                
100337b1  FHNT_DelDeviceCB                                                
10033811  FHNT_reset                                                      
1003386d  FHNT_delTempIndex                                               
100338c1  FHNT_getFixedNTIndexFromTempIndex                               
10033915  FHNT_putEntry                                                   
10033969  FHNT_getAvailEntry                                              
100339b1  FHNT_putFixedEntry                                              
100339f9  FHNT_getEUI                                                     
10033a3d  FHNT_purgeTimerIsrCb                                            
10033a75  FHNT_init                                                       
10033aa9  FHNT_assessTime                                                 
10033ac9  FHPIB_set                                                       
10033ca5  FHPIB_get                                                       
10033cf5  FHPIB_getLen                                                    
10033d25  FHPIB_getIndex                                                  
10033d41  FHPIB_reset                                                     
10033d59  FHSM_event                                                      
10033d9d  FSM_transaction_debug                                           
10033dcd  FHUTIL_adjBackOffDur                                            
10033f09  FHUTIL_getBcTxParams                                            
10033fc9  FHUTIl_updateBTIE                                               
1003404d  FHUTIL_getTxChannel                                             
100340cd  FHUTIL_getCurBfio                                               
10034149  FHUTIL_getGuardTime                                             
100341c1  FHUTIL_getBitCounts                                             
10034219  FHUTIL_getChannelSpacing                                        
10034261  FHUTIL_getCurUfsi                                               
100342a9  FHUTIL_getCh0                                                   
100342e1  FHUTIL_getMaxChannels                                           
10034319  FHUTIL_getTxUfsi                                                
10034349  FHUTIL_updateBcNumChannels                                      
10034375  FHUTIL_updateUcNumChannels                                      
100343a1  FHUTIL_getUcChannel                                             
100343c9  FHUTIL_getElapsedTime                                           
100343e5  FHUTIL_compBfioTxTime                                           
100343fd  FHUTIL_assert                                                   
10034411  FHUTIL_calcUfsi                                                 
1003441b  FHUTIL_elapsedTime                                              
1003441f  FHUTIL_noAction                                                 
10034421  macTxBeaconCompleteCallback                                     
10034545  macBeaconStartContinue                                          
100346a1  macBeaconPrepareCallback                                        
10034715  macBeaconCheckStartTime                                         
10034781  macBeaconTxCallback                                             
100347ed  macBeaconSetupBroadcast                                         
10034849  MAC_InitBeaconCoord                                             
10034895  macStartBeaconPrepareCallback                                   
100348e1  macBeaconSchedRequested                                         
10034921  macBeaconClearIndirect                                          
1003495d  macBeaconPeriodCallback                                         
10034999  macOutgoingNonSlottedTx                                         
100349d5  macBeaconSetPrepareTime                                         
10034a01  macBeaconCoordReset                                             
10034a25  macBeaconBattLifeCallback                                       
10034bcd  macApiSyncReq                                                   
10034e8d  macSyncTimeoutCallback                                          
10035065  macBeaconSyncLoss                                               
100350ed  macCheckPendAddr                                                
10035159  MAC_InitBeaconDevice                                            
10035229  macBeaconStartFrameResponseTimer                                
10035289  macBeaconStopTrack                                              
100352cd  macIncomingNonSlottedTx                                         
10035311  macStartBroadcastPendTimer                                      
10035355  macBroadcastPendCallback                                        
10035369  macBeaconSetSched                                               
10035421  macBeaconSetupCap                                               
10035535  macBeaconRequeue                                                
10035575  macBeaconInit                                                   
100355a9  macBeaconReset                                                  
100355dd  macBeaconCheckSched                                             
1003560d  macBuildAssociateRsp                                            
1003576d  macBuildBeacon                                                  
100358c5  macIndirectExpire                                               
100359d5  macStartSetParams                                               
10035ad5  macStartBegin                                                   
10035bb5  macBuildPendAddr                                                
10035d4d  macBuildRealign                                                 
10035e09  macIndirectSend                                                 
10035eb1  macApiPurgeReq                                                  
10035f55  macRxDataReq                                                    
10036085  macIndirectTxFrame                                              
100360fd  macApiOrphanRsp                                                 
10036171  macIndirectRequeueFrame                                         
100361e5  macIndirectMark                                                 
1003624d  MAC_InitCoord                                                   
100362b1  macRxAssociateReq                                               
10036309  macStartContinue                                                
10036355  macRxOrphan                                                     
10036399  macApiAssociateRsp                                              
100363d9  macStartComplete                                                
10036419  macRxBeaconReq                                                  
10036455  MAC_McpsPurgeReq                                                
10036471  MAC_MlmeAssociateRsp                                            
1003648d  MAC_MlmeOrphanRsp                                               
100364a9  macPendAddrLen                                                  
100364c5  macRxPanConflict                                                
100364e1  MAC_MlmeStartReq                                                
100364f9  macTxCompleteCallback                                           
10036729  MAC_McpsDataReq                                                 
100368cd  macDataTxSend                                                   
10036ba1  macAllocTxBuffer                                                
10036cd9  macRxCompleteCallback                                           
10036e05  MAC_McpsDataAlloc                                               
10036ef5  macApiDataReq                                                   
10036fc5  macAutoPendMaintainSrcMatchTable                                
10037079  macDataTxComplete                                               
1003712d  macDataTxEnqueue                                                
100371e1  macAutoPendAddSrcMatchTableEntry                                
10037279  macDataReset                                                    
100372f5  macFrameDurationSubG                                            
10037361  macCheckIndPacket                                               
100373b9  macDataRxInd                                                    
100373fd  macRxCheckMACPendingCallback                                    
1003742d  macRxCheckPendingCallback                                       
10037455  macDataRxMemAlloc                                               
10037479  macFrameDuration                                                
1003749d  macFrameDurationIeee                                            
100374c1  macDataSend                                                     
100374e1  macCheckSched                                                   
100374fd  macDataTxTimeAvailable                                          
10037515  macDataRxMemFree                                                
10037529  macDataTxDelayCallback                                          
1003753d  macSetSched                                                     
10037549  macBuildAssociateReq                                            
10037699  macApiAssociateReq                                              
100377a1  macDeviceReset                                                  
10037871  macRxAssocRsp                                                   
1003792d  macAssocDataRxInd                                               
100379b1  macPollDataRxInd                                                
10037a35  macRxCoordRealign                                               
10037ab9  macApiPollReq                                                   
10037b25  macAssocDataReqComplete                                         
10037b91  macPollDataReqComplete                                          
10037bed  macPollFrameResponseTimeout                                     
10037c45  MAC_InitDevice                                                  
10037c99  macAssocDataReq                                                 
10037ced  macAssocFailed                                                  
10037d35  macStartFrameResponseTimer                                      
10037d79  macAssociateCnf                                                 
10037db5  macAssocFrameResponseTimeout                                    
10037de9  macPollRxDisassoc                                               
10037e15  macStartResponseTimer                                           
10037e3d  macPollCnf                                                      
10037e61  macPollRxAssocRsp                                               
10037e85  macAssocRxDisassoc                                              
10037ea5  MAC_MlmeAssociateReq                                            
10037ebd  MAC_MlmePollReq                                                 
10037ed5  macPanConflictComplete                                          
10037ee9  macBuildPayloadIes                                              
100380d9  macBuildPayloadCoexistIe                                        
1003818d  macParseHeaderIes                                               
1003827d  macParsePayloadIes                                              
10038349  macUpdateHeaderIEPtr                                            
1003842b  macIeCoexistIePresent                                           
10038489  macUpdatePayloadIEPtr                                           
100384e5  macIeFreeList                                                   
10038501  macSendDataMsg                                                  
100385f1  macCbackForEvent                                                
100386a1  macSendMsg                                                      
1003871d  macExecute                                                      
10038791  macMainReset                                                    
100387f9  mac_msg_deallocate                                              
10038845  macSetEvent16                                                   
10038861  macSetEvent                                                     
1003887d  macStateIdleOrPolling                                           
10038899  macMainReserve                                                  
100388b1  macStateIdle                                                    
100388c9  macStateScanning                                                
100388e1  macMainSetTaskId                                                
10038c1d  macBuildCommonReq                                               
10038e15  MAC_InitFH                                                      
10038f61  macBuildDisassociateReq                                         
100391c9  MAC_MlmeResetReq                                                
100392e1  macBuildWSAsyncReq                                              
100393ed  macCommStatusInd                                                
100394f1  macBuildBeaconNotifyInd                                         
100397c9  macDisassocComplete                                             
10039855  macBuildWSAsyncMsg                                              
100398d9  macRxDisassoc                                                   
10039955  macApiDisassociateReq                                           
100399cd  MAC_Init                                                        
10039a41  macCoordDestAddrCmp                                             
10039a99  macApiWSAsyncReq                                                
10039ae9  macDestAddrCmp                                                  
10039b35  macDestSAddrCmp                                                 
10039b81  macApiPending                                                   
10039bc1  macCoordAddrCmp                                                 
10039bfd  macSetDefaultsByRE                                              
10039c35  macGetCoordAddress                                              
10039c69  MAC_YieldReq                                                    
10039c95  macConflictSyncLossInd                                          
10039cbd  MAC_EnableFH                                                    
10039ce1  MAC_MlmeFHGetReq                                                
10039d01  MAC_MlmeFHGetReqSize                                            
10039d21  MAC_MlmeFHSetReq                                                
10039d41  MAC_StartFH                                                     
10039d61  macDefaultAction                                                
10039d81  macGetMyAddrMode                                                
10039da1  macWSAsyncCnf                                                   
10039dc1  MAC_MlmeDisassociateReq                                         
10039ddd  MAC_MlmeSyncReq                                                 
10039df5  MAC_MlmeWSAsyncReq                                              
10039e0d  macApiBadState                                                  
10039e25  macApiUnsupported                                               
10039e3d  macTxCsmaDelay                                                  
10039e55  ApiMac_randomByte                                               
10039e55  MAC_RandomByte                                                  
10039e69  macBcTimerHandler                                               
10039e7d  macIsCsmOperational                                             
10039e91  macSecCpy                                                       
10039ea5  macUpdateCsmPhyParam                                            
10039eb9  macGetCSMPhy                                                    
10039ec1  macNoAction                                                     
10039ec5  MAC_MlmeSetReq                                                  
1003a115  macMRFSKGetPhyDesc                                              
1003a169  MAC_MlmeGetReq                                                  
1003a1b9  MAC_GetPHYParamReq                                              
1003a1f9  MAC_SetPHYParamReq                                              
1003a239  macPibReset                                                     
1003a275  MAC_MlmeGetReqSize                                              
1003a29d  macIEEEGetPhyDesc                                               
1003a2ad  macApiScanReq                                                   
1003a839  macScanComplete                                                 
1003a8b9  macScanStartTimer                                               
1003a931  macScanCnfInit                                                  
1003a96d  macScanFailedInProgress                                         
1003a99d  MAC_MlmeSetSecurityReq                                          
1003ac6d  macSecurityPibReset                                             
1003af09  MAC_MlmeGetSecurityReq                                          
1003b101  MAC_MlmeGetSecurityReqSize                                      
1003b159  MAC_MlmeGetPointerSecurityReq                                   
1003b199  macSecurityPibIndex                                             
1003b9f1  macUpdatePanId                                                  
1003ba75  macGetEUIIndex                                                  
1003bb81  macGetEUI                                                       
1003c6e9  macWrapperGetDefaultSourceKey                                   
20000000  ti_sysbios_family_arm_m3_Hwi_ramVectors                         
20000100  xdcRomConstPtr                                                  
20000104  xdcRomExternFuncPtr                                             
20000108  xdcRomStatePtr                                                  
2000010c  RAM_MAC_BASE_ADDR                                               
20000123  AppTaskId                                                       
20000134  pMacCbackQueryRetransmit                                        
20000138  pMacCbackCheckPending                                           
2000013c  macSem                                                          
20000194  macTask                                                         
200009e4  macSrcMatchIsAckAllPending                                      
200009e5  macSrcResIndex                                                  
20000ee4  macUser0Cfg                                                     
20000ef8  myTask                                                          
20000f48  Main_user1Cfg                                                   
20000fa4  myTaskStack                                                     
200012c4  npiAppEntityID                                                  
200012c6  incomingTXReroute                                               
200012e0  npiSemHandle                                                    
200012e4  NPITask_events                                                  
200012ec  incomingTXEventAppCBFunc                                        
200012f0  structnpiSem                                                    
2000135c  npiTaskStack                                                    
2000164c  RF_prop_ieee154                                                 
2000165c  RF_prop_2gfsk50kbps154g                                         
2000166c  RF_prop_2gfsk100kbps154g915mhz                                  
2000167c  RF_prop_2gfsk100kbps154g868mhz                                  
2000168c  RF_prop_2gfsk200kbps154g                                        
2000169c  RF_prop_2gfsk500kbps154g                                        
200016ac  RF_prop_slr5kbps2gfsk                                           
200016bc  txPowerTable_ieee154                                            
2000170c  txPowerTable_2gfsk50kbps154g                                    
20001770  txPowerTable_2gfsk100kbps154g915mhz                             
200017d4  txPowerTable_2gfsk100kbps154g868mhz                             
20001838  txPowerTable_2gfsk200kbps154g                                   
2000189c  txPowerTable_2gfsk500kbps154g                                   
20001900  txPowerTable_slr5kbps2gfsk                                      
20001b98  RF_cmdNop                                                       
20001ba8  RF_cmdNopFg                                                     
20001bb8  RF_cmdRxAckCmd                                                  
20001bcc  RF_cmdFsRx                                                      
20001be4  RF_cmdFsTx                                                      
20001bfc  RF_cmdIEEETx                                                    
20001c14  RF_cmdPropCs                                                    
20001c30  RF_cmdPropCsSlotted                                             
20001c4c  RF_cmdRadioSetup                                                
20001c6c  RF_cmdIEEECsma                                                  
20001c8c  RF_cmdPropTxAdv                                                 
20001cac  RF_cmdPropRadioDivSetup                                         
20001cdc  RF_cmdPropRxAdv                                                 
20001d0c  RF_cmdIEEERx                                                    
20001d48  joinPolicy                                                      
20001d49  txPwr                                                           
20001d4a  ebPieLen                                                        
20001d4b  ebPayloadLen                                                    
20001d4c  ebrPieLen                                                       
20001d62  ebPieData                                                       
20001de1  ebPayloadData                                                   
20001e60  ebrPieData                                                      
20001ee0  taskCnt                                                         
20001ef0  heapmgrMemFreeTotal                                             
20001ef4  heapmgrMemFreeError                                             
20001f00  HEAPMGR_SIZE                                                    
20001f04  taskTbl                                                         
2000206c  PowerCC26X2_module                                              
200022f0  ROM_stateStruct                                                 
200022f0  ti_sysbios_knl_Clock_Module__state__V                           
2000231c  ti_sysbios_family_arm_cc26xx_TimestampProvider_Module__state__V 
20002320  xdc_runtime_Startup_Module__state__V                            
20002328  xdc_runtime_Registry_Module__state__V                           
20002330  ti_sysbios_BIOS_Module__state__V                                
20002354  ti_sysbios_knl_Swi_Module__state__V                             
20002370  ti_sysbios_knl_Task_Module__state__V                            
200023b4  xdc_runtime_Memory_Module__state__V                             
200023b8  xdc_runtime_System_Module__state__V                             
200023c0  ti_sysbios_family_arm_m3_Hwi_Module__state__V                   
200023f4  ti_sysbios_family_arm_cc26xx_Timer_Module__state__V             
200023fc  macAddrSize                                                     
20002400  reqAccessAlloc                                                  
20002402  rxCmdHandle                                                     
20002408  macRfDrvTblPtr                                                  
2000240c  lastPostCmd                                                     
20002410  macSfdDetectCback                                               
20002414  macTxTimestamp                                                  
20002418  pMacRadioConfig                                                 
20002430  macRxOutputSubG                                                 
2000243c  macRxOutputIeee                                                 
2000244c  macFrmFilter                                                    
2000245c  macSrcShortAddrList                                             
20002478  macSrcExtAddrList                                               
200024a8  macMRFSKGenPhyTable                                             
2000254a  gAction                                                         
2000254b  NVOCMP_size                                                     
20002578  NVOCMP_nvHandle                                                 
200025c0  fhObject                                                        
2000262c  FHIE_channelPlan                                                
200026cc  ti_sysbios_knl_Task_Object__table__V                            
20002718  ti_sysbios_family_arm_cc26xx_Timer_Object__table__V             
200027ac  pRfMode                                                         
200027b0  pRfPowerTable                                                   
200027b4  pMaxPower                                                       
200027b8  RF_handle                                                       
200027bc  macPhyTxPower                                                   
200027c4  RF_params                                                       
200027e4  pOverrides_2gfsk500kbps154g                                     
20002824  pOverrides_2gfsk100kbps154g868mhz                               
20002860  pOverrides_2gfsk100kbps154g915mhz                               
200028d4  ti_sysbios_gates_GateMutex_Object__table__V                     
2000290c  appTaskId                                                       
20002914  appEvents                                                       
2000291c  ApiMac_extAddr                                                  
20002924  appSem                                                          
20002940  macBeaconPayload                                                
200029a4  pMacDataTx                                                      
200029a8  macDataTxIndirect                                               
200029ac  macDataRequeueIndirect                                          
200029b0  macDataRxBeaconCritical                                         
200029b4  macDataTxBeaconComplete                                         
200029b8  macDataSetSched                                                 
200029bc  macDataCheckSched                                               
200029c0  macDataCheckTxTime                                              
200029c4  macDataBeaconRequeue                                            
200029c8  csmPhy                                                          
200029cc  macTimerRollover                                                
200029d0  macTimerNewRollover                                             
200029d4  ti_sysbios_knl_Swi_Module_State_0_readyQ__A                     
20002a04  ti_sysbios_knl_Swi_Object__table__V                             
20002a34  ti_sysbios_knl_Task_Module_State_0_readyQ__A                    
20002a64  npiEID                                                          
20002a65  npiSID                                                          
20002a68  mtProcessIncoming                                               
20002a90  pOverrides_slr5kbps2gfsk                                        
20002abc  macSpecUsecsPerSymbol                                           
20002ac0  macPrevPeriodRatCount                                           
20002ac4  macSymbolTimerRollover                                          
20002ac8  macSymbolTimerTrigger                                           
20002ae4  pOverrides_2gfsk200kbps154g                                     
20002b0c  pOverrides_2gfsk50kbps154g                                      
20002b34  macTxSlottedDelayFactor                                         
20002b35  macTxType                                                       
20002b36  macTxBe                                                         
20002b37  macTxGpInterframeDelay                                          
20002b38  txAckReq                                                        
20002b3b  txSeqn                                                          
20002b3d  numTx                                                           
20002b3e  macTxCsmaBackoffDelay                                           
20002b40  macCsmaRtcTimerId                                               
20002b44  macAckDbg                                                       
20002b58  _hposcCoeffs                                                    
20002b7c  macActionSet                                                    
20002bc0  macBeaconMargin                                                 
20002be0  ti_sysbios_knl_Clock_Object__table__V                           
20002c00  xdc_runtime_Error_IgnoreBlock                                   
20002c20  ti_sysbios_family_arm_m3_Hwi_Object__table__V                   
20002c38  txCmdHandle                                                     
20002c3a  macRadioAckIeeeFrame                                            
20002c40  pMacEnhancedAck                                                 
20002c44  macRadioAckFrame                                                
20002c4c  macStateTbl                                                     
20002c70  macCfg                                                          
20002c80  lastRatChanA                                                    
20002c81  lastRatChanB                                                    
20002c82  macRxCmdActive                                                  
20002c83  macTxCmdActive                                                  
20002c84  macFsCmdActive                                                  
20002c85  macRxPreempted                                                  
20002c86  macReqAccessCnt                                                 
20002c88  macReqAccessTimeCnt                                             
20002c8a  macReqAccErrCnt                                                 
20002c8c  numRfCmd                                                        
20002c8d  numRxCmd                                                        
20002c8e  numRxPostCmd                                                    
20002c98  pClockHandleEDScan                                              
20002ca8  FH_FSM                                                          
20002cb4  pOverrides_ieee154                                              
20002cc0  ti_sysbios_heaps_HeapCallback_Object__table__V                  
20002ccc  _lock                                                           
20002cd0  _unlock                                                         
20002cdc  FH_txTiming                                                     
20002ce4  RFCC26XX_schedulerPolicy                                        
20002cec  pinUpperBound                                                   
20002cf0  pinLowerBound                                                   
20002cfc  ti_sysbios_family_arm_m3_Hwi_Module__root__V                    
20002d04  ti_sysbios_gates_GateHwi_Module__root__V                        
20002d0c  ti_sysbios_gates_GateMutexPri_Module__root__V                   
20002d14  ti_sysbios_gates_GateMutex_Module__root__V                      
20002d1c  ti_sysbios_hal_Hwi_Module__root__V                              
20002d24  ti_sysbios_heaps_HeapCallback_Module__root__V                   
20002d2c  ti_sysbios_heaps_HeapMem_Module__root__V                        
20002d34  ti_sysbios_knl_Clock_Module__root__V                            
20002d3c  ti_sysbios_knl_Event_Module__root__V                            
20002d44  ti_sysbios_knl_Mailbox_Module__root__V                          
20002d4c  ti_sysbios_knl_Queue_Module__root__V                            
20002d54  ti_sysbios_knl_Semaphore_Module__root__V                        
20002d5c  ti_sysbios_knl_Swi_Module__root__V                              
20002d64  ti_sysbios_knl_Task_Module__root__V                             
20002d6c  macTasksEvents                                                  
20002d70  macTxSlottedDelay                                               
20002d71  bInSwi                                                          
20002d72  macSrcMatchIsEnabled                                            
20002d73  macRadioYielded                                                 
20002d78  main_func_sp                                                    
20002d7c  ti_sysbios_family_arm_m3_Hwi_Module_State_0_excContext__A       
20002d80  ti_sysbios_family_arm_m3_Hwi_Module_State_0_excStack__A         
20002d84  ti_sysbios_knl_Task_Module_State_0_idleTask__A                  
20002d88  CryptoResourceCC26XX_pollingFlag                                
20002d8c  ti_sysbios_family_arm_m3_Hwi_Module_State_0_excActive__A        
20002d90  macSleepState                                                   
20002d98  ti_sysbios_knl_Task_Instance_State_0_stack__A                   
20002f98  uartCC26XXObjects                                               
2000314c  enhancedAckBuf                                                  
20003340  ti_sysbios_family_arm_m3_Hwi_dispatchTable                      
20003418  dcStatus                                                        
2000341c  dcLimited                                                       
20003420  dcCritical                                                      
20003424  dcRegulated                                                     
20003428  dcTimeUsed                                                      
2000342c  dcPtr                                                           
2000344c  dcBucket                                                        
200034b4  FHPIB_db                                                        
20003540  FH_hnd                                                          
200035c8  macPib                                                          
20003650  pinHandleTable                                                  
200036cc  FHNT_tableOpt                                                   
20003748  macScan                                                         
200037ec  CryptoResourceCC26XX_accessSemaphore                            
2000383c  CryptoResourceCC26XX_operationSemaphore                         
2000388c  FHFSM_Dbg                                                       
200038ce  driverlib_release_0_59146                                       
200038cf  macAckTxActive                                                  
200038d0  macSecurityPib                                                  
20003910  macBeaconCoord                                                  
2000394c  FHNT_hnd                                                        
20003984  macDeviceAction1                                                
200039f0  macBeaconDevice                                                 
20003a24  macMgmtAction1                                                  
20003a54  macCoord                                                        
20003a80  macDevice                                                       
20003aac  macRxFilter                                                     
20003aad  rxPromiscuousMode                                               
20003ab0  rxSeqNum                                                        
20003ab8  macRxDataEntryOffset                                            
20003abc  rxRadioBufferPtr                                                
20003acc  macRxDataEntryQueue                                             
20003b3c  macBeacon                                                       
20003bb0  CryptoResourceCC26XX_hwi                                        
20003bcc  macCoordAction2                                                 
20003be8  macReset                                                        
20003c04  aesccmCC26XXObjects                                             
20003c1c  macScanAction                                                   
20003c5c  macDeviceAction2                                                
20003c70  macMgmtAction2                                                  
20003c84  macBeaconDeviceAction                                           
20003c94  macCoordAction3                                                 
20003ca4  macData                                                         
20003cb4  macDataTxDelay                                                  
20003cd0  macMain                                                         
20003cdc  FHNT_tempTable                                                  
20003ce4  macBeaconCoordAction1                                           
20003cec  macCoordAction1                                                 
20003cf4  FHNT_Dbg                                                        
20003cfa  macMgmt                                                         
20003cfb  macPanCoordinator                                               
20003d00  AESCCM_handle                                                   
20003d04  FH_test_var                                                     
20003d08  PowerCC26XX_swiKey                                              
20003d0c  PowerCC26XX_taskKey                                             
20003d10  macCryptoDrvTblPtr                                              
20003d14  macRxSymbol                                                     
20003d18  macTimerActive                                                  
20003d1c  nvsCC26XXObjects                                                
20003d20  timerAlignedQ                                                   
20003d24  timerUnalignedQ                                                 
20003d28  macPhyChannel                                                   
20003d29  macPwr                                                          
20003d2a  macRxActive                                                     
20003d2b  macRxEnableFlags                                                
20003d2c  macRxOutgoingAckFlag                                            
20003d2d  macSymbolTimerImpending                                         
20003d2e  macTaskId                                                       
20003d2f  macTxActive                                                     
20003d30  macUnitBackoffPeriod                                            
20003d31  rxFhRsl                                                         
20003d32  heapStart                                                       
20013aa0  __stack                                                         
20013aa0  heapEnd                                                         
20014000  __STACK_END                                                     
20014000  __STACK_TOP                                                     
e000e000  ti_sysbios_family_arm_m3_Hwi_nvic                               
ffffffff  __TI_pprof_out_hndl                                             
ffffffff  __TI_prof_data_size                                             
ffffffff  __TI_prof_data_start                                            
ffffffff  __binit__                                                       
ffffffff  __c_args__                                                      
ffffffff  binit                                                           
UNDEFED   ITM_flush                                                       
UNDEFED   ITM_restore                                                     
UNDEFED   SHT$$INIT_ARRAY$$Base                                           
UNDEFED   SHT$$INIT_ARRAY$$Limit                                          

[1863 symbols]
